
========================================================================

** ELF Header Information

    File Name: ucos.axf

    Machine class: ELFCLASS32 (32-bit)
    Data encoding: ELFDATA2LSB (Little endian)
    Header version: EV_CURRENT (Current version)
    File Type: ET_EXEC (Executable) (2)
    Machine: EM_ARM (ARM)

    Image Entry point: 0x00008000
    Flags: EF_ARM_HASENTRY + EF_ARM_SYMSARESORTED + EF_ARM_MAPSYMSFIRST (0x02000016)

    EABI conformance : ARM EABI Version 2.

    Built with
    ARM/Thumb Macro Assembler vsn ADS1.2 [Build 805]
    ARM C Compiler, ADS1.2 [Build 805]
    ARM Linker, ADS1.2 [Build 805] 

    Header size: 52 bytes (0x34)
    Program header entry size: 32 bytes (0x20)
    Section header entry size: 40 bytes (0x28)

    Program header entries: 1
    Section header entries: 15

    Program header offset: 79992 (0x00013878)
    Section header offset: 80024 (0x00013898)

    Section header string table index: 14

========================================================================

** Program header #0 (PT_LOAD) [PF_X + PF_W + PF_R + PF_ARM_ENTRY]
    Size : 34232 bytes (18652 bytes in file)
    Virtual address: 0x00008000


========================================================================

** Section #1 'ER_RO' (SHT_PROGBITS) [SHF_ALLOC + SHF_EXECINSTR]
    Size   : 18652 bytes (alignment 4)
    Address: 0x00008000

    __init
    $a
    asm_code
        0x00008000:    e3a000d2    ....    MOV      r0,#0xd2
        0x00008004:    e12ff000    ../.    MSR      CPSR_cxsf,r0
        0x00008008:    e3a0da70    p...    MOV      r13,#0x70000
        0x0000800c:    e3a000d3    ....    MOV      r0,#0xd3
        0x00008010:    e12ff000    ../.    MSR      CPSR_cxsf,r0
        0x00008014:    e3a0da80    ....    MOV      r13,#0x80000
        0x00008018:    e59fe008    ....    LDR      r14,0x8028
        0x0000801c:    e3a00053    S...    MOV      r0,#0x53
        0x00008020:    e121f000    ..!.    MSR      CPSR_c,r0
        0x00008024:    e1a0f00e    ....    MOV      pc,r14
    $d
    $f
        0x00008028:    000083b8    ....    DCD    33720
    putchar_uart0
    $a
    .text
        0x0000802c:    e1a00000    ....    NOP      
        0x00008030:    e59f1098    ....    LDR      r1,0x80d0
        0x00008034:    e5911008    ....    LDR      r1,[r1,#8]
        0x00008038:    e3110040    @...    TST      r1,#0x40
        0x0000803c:    0afffffb    ....    BEQ      0x8030
        0x00008040:    e59f1088    ....    LDR      r1,0x80d0
        0x00008044:    e581000c    ....    STR      r0,[r1,#0xc]
        0x00008048:    e1a0f00e    ....    MOV      pc,r14
    fputc
        0x0000804c:    e52de004    ..-.    STR      r14,[r13,#-4]!
        0x00008050:    e1a02000    . ..    MOV      r2,r0
        0x00008054:    e1a03001    .0..    MOV      r3,r1
        0x00008058:    e1a00002    ....    MOV      r0,r2
        0x0000805c:    ebfffff2    ....    BL       putchar_uart0  ; 0x802c
        0x00008060:    e1a00002    ....    MOV      r0,r2
        0x00008064:    e49df004    ....    LDR      pc,[r13],#4
    ferror
        0x00008068:    e1a01000    ....    MOV      r1,r0
        0x0000806c:    e3e00000    ....    MVN      r0,#0
        0x00008070:    e1a0f00e    ....    MOV      pc,r14
    timer_irq
        0x00008074:    e92d4008    .@-.    STMFD    r13!,{r3,r14}
        0x00008078:    e3a00e40    @...    MOV      r0,#0x400
        0x0000807c:    e59f1050    P...    LDR      r1,0x80d4
        0x00008080:    e5810004    ....    STR      r0,[r1,#4]
        0x00008084:    e59f004c    L...    LDR      r0,0x80d8
        0x00008088:    e2811d80    ....    ADD      r1,r1,#0x2000
        0x0000808c:    e5810004    ....    STR      r0,[r1,#4]
        0x00008090:    e59f0044    D...    LDR      r0,0x80dc
        0x00008094:    e5901000    ....    LDR      r1,[r0,#0]
        0x00008098:    e28f0040    @...    ADD      r0,pc,#0x40 ; #0x80e0
        0x0000809c:    eb000bef    ....    BL       _printf  ; 0xb060
        0x000080a0:    e59f0034    4...    LDR      r0,0x80dc
        0x000080a4:    e5900000    ....    LDR      r0,[r0,#0]
        0x000080a8:    e2800001    ....    ADD      r0,r0,#1
        0x000080ac:    e59f1028    (...    LDR      r1,0x80dc
        0x000080b0:    e5810000    ....    STR      r0,[r1,#0]
        0x000080b4:    e59f0018    ....    LDR      r0,0x80d4
        0x000080b8:    e5900008    ....    LDR      r0,[r0,#8]
        0x000080bc:    e59f1034    4...    LDR      r1,0x80f8
        0x000080c0:    e0000001    ....    AND      r0,r0,r1
        0x000080c4:    e59f1008    ....    LDR      r1,0x80d4
        0x000080c8:    e5810008    ....    STR      r0,[r1,#8]
        0x000080cc:    e8bd8008    ....    LDMFD    r13!,{r3,pc}
    $d
        0x000080d0:    03ffd000    ....    DCD    67096576
        0x000080d4:    03ff4000    .@..    DCD    67059712
        0x000080d8:    01effff0    ....    DCD    32505840
        0x000080dc:    0000c8dc    ....    DCD    51420
        0x000080e0:    205e0a0d    ..^     DCD    543033869
        0x000080e4:    656d6974    time    DCD    1701669236
        0x000080e8:    6369742d    -tic    DCD    1667855405
        0x000080ec:    3d20736b    ks =    DCD    1025536875
        0x000080f0:    20642520     %d     DCD    543434016
        0x000080f4:    000a0d21    !...    DCD    658721
        0x000080f8:    ffdffbfe    ....    DCD    4292869118
    install_irqhandler
    $a
        0x000080fc:    e52de004    ..-.    STR      r14,[r13,#-4]!
        0x00008100:    e3a01018    ....    MOV      r1,#0x18
        0x00008104:    e3a02038    8 ..    MOV      r2,#0x38
        0x00008108:    e5820000    ....    STR      r0,[r2,#0]
        0x0000810c:    e042c001    ..B.    SUB      r12,r2,r1
        0x00008110:    e24cc008    ..L.    SUB      r12,r12,#8
        0x00008114:    e59fe0f8    ....    LDR      r14,0x8214
        0x00008118:    e18c300e    .0..    ORR      r3,r12,r14
        0x0000811c:    e5813000    .0..    STR      r3,[r1,#0]
        0x00008120:    e49df004    ....    LDR      pc,[r13],#4
    timer_init
        0x00008124:    e3a00000    ....    MOV      r0,#0
        0x00008128:    e59f10e8    ....    LDR      r1,0x8218
        0x0000812c:    e5810000    ....    STR      r0,[r1,#0]
        0x00008130:    e3a00000    ....    MOV      r0,#0
        0x00008134:    e2411d80    ..A.    SUB      r1,r1,#0x2000
        0x00008138:    e5810004    ....    STR      r0,[r1,#4]
        0x0000813c:    e1a0f00e    ....    MOV      pc,r14
    timer_start
        0x00008140:    e51f0070    p...    LDR      r0,0x80d8
        0x00008144:    e59f10cc    ....    LDR      r1,0x8218
        0x00008148:    e5810004    ....    STR      r0,[r1,#4]
        0x0000814c:    e1c10640    @...    BIC      r0,r1,r0,ASR #12
        0x00008150:    e5900000    ....    LDR      r0,[r0,#0]
        0x00008154:    e3800001    ....    ORR      r0,r0,#1
        0x00008158:    e5810000    ....    STR      r0,[r1,#0]
        0x0000815c:    e2410d80    ..A.    SUB      r0,r1,#0x2000
        0x00008160:    e5900008    ....    LDR      r0,[r0,#8]
        0x00008164:    e51f1074    t...    LDR      r1,0x80f8
        0x00008168:    e0000001    ....    AND      r0,r0,r1
        0x0000816c:    e51f10a0    ....    LDR      r1,0x80d4
        0x00008170:    e5810008    ....    STR      r0,[r1,#8]
        0x00008174:    e1a0f00e    ....    MOV      pc,r14
    Sleep
        0x00008178:    e92d4010    .@-.    STMFD    r13!,{r4,r14}
        0x0000817c:    e1a04000    .@..    MOV      r4,r0
        0x00008180:    e1a00004    ....    MOV      r0,r4
        0x00008184:    eb000a9d    ....    BL       OSTimeDly  ; 0xac00
        0x00008188:    e8bd8010    ....    LDMFD    r13!,{r4,pc}
    Task1
        0x0000818c:    e92d4008    .@-.    STMFD    r13!,{r3,r14}
        0x00008190:    ebffffe3    ....    BL       timer_init  ; 0x8124
        0x00008194:    ebffffe9    ....    BL       timer_start  ; 0x8140
        0x00008198:    e1a00000    ....    NOP      
        0x0000819c:    e1a00000    ....    NOP      
        0x000081a0:    e28f0074    t...    ADD      r0,pc,#0x74 ; #0x821c
        0x000081a4:    eb000bad    ....    BL       _printf  ; 0xb060
        0x000081a8:    e28f006c    l...    ADD      r0,pc,#0x6c ; #0x821c
        0x000081ac:    eb000bab    ....    BL       _printf  ; 0xb060
        0x000081b0:    e28f0068    h...    ADD      r0,pc,#0x68 ; #0x8220
        0x000081b4:    eb000ba9    ....    BL       _printf  ; 0xb060
        0x000081b8:    e28f0078    x...    ADD      r0,pc,#0x78 ; #0x8238
        0x000081bc:    eb000ba7    ....    BL       _printf  ; 0xb060
        0x000081c0:    e28f0080    ....    ADD      r0,pc,#0x80 ; #0x8248
        0x000081c4:    eb000ba5    ....    BL       _printf  ; 0xb060
        0x000081c8:    e28f0088    ....    ADD      r0,pc,#0x88 ; #0x8258
        0x000081cc:    eb000ba3    ....    BL       _printf  ; 0xb060
        0x000081d0:    e28f0090    ....    ADD      r0,pc,#0x90 ; #0x8268
        0x000081d4:    eb000ba1    ....    BL       _printf  ; 0xb060
        0x000081d8:    e28f0098    ....    ADD      r0,pc,#0x98 ; #0x8278
        0x000081dc:    eb000b9f    ....    BL       _printf  ; 0xb060
        0x000081e0:    e28f00a0    ....    ADD      r0,pc,#0xa0 ; #0x8288
        0x000081e4:    eb000b9d    ....    BL       _printf  ; 0xb060
        0x000081e8:    e28f002c    ,...    ADD      r0,pc,#0x2c ; #0x821c
        0x000081ec:    eb000b9b    ....    BL       _printf  ; 0xb060
        0x000081f0:    e28f00a0    ....    ADD      r0,pc,#0xa0 ; #0x8298
        0x000081f4:    eb000b99    ....    BL       _printf  ; 0xb060
        0x000081f8:    e28f001c    ....    ADD      r0,pc,#0x1c ; #0x821c
        0x000081fc:    eb000b97    ....    BL       _printf  ; 0xb060
        0x00008200:    e28f0014    ....    ADD      r0,pc,#0x14 ; #0x821c
        0x00008204:    eb000b95    ....    BL       _printf  ; 0xb060
        0x00008208:    e3a00005    ....    MOV      r0,#5
        0x0000820c:    ebffffd9    ....    BL       Sleep  ; 0x8178
        0x00008210:    eaffffe1    ....    B        0x819c
    $d
        0x00008214:    e59ff000    ....    DCD    3852464128
        0x00008218:    03ff6000    .`..    DCD    67067904
        0x0000821c:    000a0d40    @...    DCD    658752
        0x00008220:    61742040    @ ta    DCD    1635000384
        0x00008224:    31206b73    sk 1    DCD    824208243
        0x00008228:    6e757220     run    DCD    1853190688
        0x0000822c:    676e696e    ning    DCD    1735289198
        0x00008230:    2e2e2e20     ...    DCD    774778400
        0x00008234:    000a0d20     ...    DCD    658720
        0x00008238:    20202040    @       DCD    538976320
        0x0000823c:    5f5f5120     Q__    DCD    1600082208
        0x00008240:    20202051    Q       DCD    538976337
        0x00008244:    000a0d20     ...    DCD    658720
        0x00008248:    20202040    @       DCD    538976320
        0x0000824c:    5f5f5f2f    /___    DCD    1600085807
        0x00008250:    20205c5f    _\      DCD    538991711
        0x00008254:    000a0d20     ...    DCD    658720
        0x00008258:    20202040    @       DCD    538976320
        0x0000825c:    5f5f5f5c    \___    DCD    1600085852
        0x00008260:    20202f5f    _/      DCD    538980191
        0x00008264:    000a0d20     ...    DCD    658720
        0x00008268:    20202040    @       DCD    538976320
        0x0000826c:    2f5c2f20     /\/    DCD    794570528
        0x00008270:    2020205c    \       DCD    538976348
        0x00008274:    000a0d20     ...    DCD    658720
        0x00008278:    5f5f2040    @ __    DCD    1600069696
        0x0000827c:    2f5c5c28    (\\/    DCD    794582056
        0x00008280:    5f5f292f    /)__    DCD    1600071983
        0x00008284:    000a0d20     ...    DCD    658720
        0x00008288:    5f3e2040    @ >_    DCD    1597907008
        0x0000828c:    77772f5f    _/ww    DCD    2004299615
        0x00008290:    3c5f5f5c    \__<    DCD    1012883292
        0x00008294:    000a0d20     ...    DCD    658720
        0x00008298:    6f672040    @ go    DCD    1869029440
        0x0000829c:    206f7420     to     DCD    544175136
        0x000082a0:    65656c73    slee    DCD    1701145715
        0x000082a4:    20352070    p 5     DCD    540352624
        0x000082a8:    656d6974    time    DCD    1701669236
        0x000082ac:    6369742d    -tic    DCD    1667855405
        0x000082b0:    0a0d736b    ks..    DCD    168653675
        0x000082b4:    00000000    ....    DCD    0
    Task2
    $a
        0x000082b8:    e92d4008    .@-.    STMFD    r13!,{r3,r14}
        0x000082bc:    e1a00000    ....    NOP      
        0x000082c0:    e1a00000    ....    NOP      
        0x000082c4:    e28f005c    \...    ADD      r0,pc,#0x5c ; #0x8328
        0x000082c8:    eb000b64    d...    BL       _printf  ; 0xb060
        0x000082cc:    e28f0054    T...    ADD      r0,pc,#0x54 ; #0x8328
        0x000082d0:    eb000b62    b...    BL       _printf  ; 0xb060
        0x000082d4:    e28f0054    T...    ADD      r0,pc,#0x54 ; #0x8330
        0x000082d8:    eb000b60    `...    BL       _printf  ; 0xb060
        0x000082dc:    e28f0068    h...    ADD      r0,pc,#0x68 ; #0x834c
        0x000082e0:    eb000b5e    ^...    BL       _printf  ; 0xb060
        0x000082e4:    e28f0074    t...    ADD      r0,pc,#0x74 ; #0x8360
        0x000082e8:    eb000b5c    \...    BL       _printf  ; 0xb060
        0x000082ec:    e28f0080    ....    ADD      r0,pc,#0x80 ; #0x8374
        0x000082f0:    eb000b5a    Z...    BL       _printf  ; 0xb060
        0x000082f4:    e28f008c    ....    ADD      r0,pc,#0x8c ; #0x8388
        0x000082f8:    eb000b58    X...    BL       _printf  ; 0xb060
        0x000082fc:    e28f0024    $...    ADD      r0,pc,#0x24 ; #0x8328
        0x00008300:    eb000b56    V...    BL       _printf  ; 0xb060
        0x00008304:    e28f008c    ....    ADD      r0,pc,#0x8c ; #0x8398
        0x00008308:    eb000b54    T...    BL       _printf  ; 0xb060
        0x0000830c:    e28f0014    ....    ADD      r0,pc,#0x14 ; #0x8328
        0x00008310:    eb000b52    R...    BL       _printf  ; 0xb060
        0x00008314:    e28f000c    ....    ADD      r0,pc,#0xc ; #0x8328
        0x00008318:    eb000b50    P...    BL       _printf  ; 0xb060
        0x0000831c:    e3a00002    ....    MOV      r0,#2
        0x00008320:    ebffff94    ....    BL       Sleep  ; 0x8178
        0x00008324:    eaffffe5    ....    B        0x82c0
    $d
        0x00008328:    202b2b2b    +++     DCD    539700011
        0x0000832c:    00000a0d    ....    DCD    2573
        0x00008330:    202b2b2b    +++     DCD    539700011
        0x00008334:    73617420     tas    DCD    1935766560
        0x00008338:    2032206b    k 2     DCD    540156011
        0x0000833c:    6e6e7572    runn    DCD    1852732786
        0x00008340:    20676e69    ing     DCD    543649385
        0x00008344:    202e2e2e    ...     DCD    539897390
        0x00008348:    00000a0d    ....    DCD    2573
        0x0000834c:    202b2b2b    +++     DCD    539700011
        0x00008350:    a671a820     .q.    DCD    2792466464
        0x00008354:    a6e4a6e4    ....    DCD    2800002788
        0x00008358:    2072a8e4    ..r     DCD    544385252
        0x0000835c:    00000a0d    ....    DCD    2573
        0x00008360:    202b2b2b    +++     DCD    539700011
        0x00008364:    a1a12f7b    {/..    DCD    2711695227
        0x00008368:    6fa1a16f    o..o    DCD    1872863599
        0x0000836c:    7d5ca1a1    ..\}    DCD    2103222689
        0x00008370:    000a0d20     ...    DCD    658720
        0x00008374:    202b2b2b    +++     DCD    539700011
        0x00008378:    a1a12820     (..    DCD    2711693344
        0x0000837c:    296f6f28    (oo)    DCD    695168808
        0x00008380:    2029a1a1    ..)     DCD    539599265
        0x00008384:    00000a0d    ....    DCD    2573
        0x00008388:    202b2b2b    +++     DCD    539700011
        0x0000838c:    20202020            DCD    538976288
        0x00008390:    20e1a620     ..     DCD    551659040
        0x00008394:    00000a0d    ....    DCD    2573
        0x00008398:    202b2b2b    +++     DCD    539700011
        0x0000839c:    206f6720     go     DCD    544171808
        0x000083a0:    73206f74    to s    DCD    1931505524
        0x000083a4:    7065656c    leep    DCD    1885693292
        0x000083a8:    74203220     2 t    DCD    1948267040
        0x000083ac:    2d656d69    ime-    DCD    761621865
        0x000083b0:    6b636974    tick    DCD    1801677172
        0x000083b4:    000a0d73    s...    DCD    658803
    C_Entry
    $a
        0x000083b8:    e92d400e    .@-.    STMFD    r13!,{r1-r3,r14}
        0x000083bc:    e3a00000    ....    MOV      r0,#0
        0x000083c0:    e58d0008    ....    STR      r0,[r13,#8]
        0x000083c4:    e3a00001    ....    MOV      r0,#1
        0x000083c8:    e58d0004    ....    STR      r0,[r13,#4]
        0x000083cc:    e3a00000    ....    MOV      r0,#0
        0x000083d0:    e51f12fc    ....    LDR      r1,0x80dc
        0x000083d4:    e5810000    ....    STR      r0,[r1,#0]
        0x000083d8:    e28f003c    <...    ADD      r0,pc,#0x3c ; #0x841c
        0x000083dc:    eb000b1f    ....    BL       _printf  ; 0xb060
        0x000083e0:    e59f0048    H...    LDR      r0,0x8430
        0x000083e4:    ebffff44    D...    BL       install_irqhandler  ; 0x80fc
        0x000083e8:    eb00011a    ....    BL       OSInit  ; 0x8858
        0x000083ec:    e3a03000    .0..    MOV      r3,#0
        0x000083f0:    e59f203c    < ..    LDR      r2,0x8434
        0x000083f4:    e28d1008    ....    ADD      r1,r13,#8
        0x000083f8:    e59f0038    8...    LDR      r0,0x8438
        0x000083fc:    eb000862    b...    BL       OSTaskCreate  ; 0xa58c
        0x00008400:    e3a03001    .0..    MOV      r3,#1
        0x00008404:    e59f2030    0 ..    LDR      r2,0x843c
        0x00008408:    e28d1004    ....    ADD      r1,r13,#4
        0x0000840c:    e59f002c    ,...    LDR      r0,0x8440
        0x00008410:    eb00085d    ]...    BL       OSTaskCreate  ; 0xa58c
        0x00008414:    eb0001f9    ....    BL       OSStart  ; 0x8c00
        0x00008418:    e8bd800e    ....    LDMFD    r13!,{r1-r3,pc}
    $d
        0x0000841c:    72617473    star    DCD    1918989427
        0x00008420:    656b2074    t ke    DCD    1701519476
        0x00008424:    6c656e72    rnel    DCD    1818586738
        0x00008428:    216b6f20     ok!    DCD    560688928
        0x0000842c:    00000a0d    ....    DCD    2573
    $f
        0x00008430:    0000c5c4    ....    DCD    50628
        0x00008434:    0000d8e0    ....    DCD    55520
    $f
        0x00008438:    0000818c    ....    DCD    33164
        0x0000843c:    0000e8e0    ....    DCD    59616
    $f
        0x00008440:    000082b8    ....    DCD    33464
    OS_TaskIdle
    $a
    .text
        0x00008444:    e92d4010    .@-.    STMFD    r13!,{r4,r14}
        0x00008448:    e1a04000    .@..    MOV      r4,r0
        0x0000844c:    e1a00000    ....    NOP      
        0x00008450:    e1a00000    ....    NOP      
        0x00008454:    e1a00000    ....    NOP      
        0x00008458:    eb00107e    ~...    BL       ARMDisableInt  ; 0xc658
        0x0000845c:    e59f081c    ....    LDR      r0,0x8c80
        0x00008460:    e5900000    ....    LDR      r0,[r0,#0]
        0x00008464:    e2800001    ....    ADD      r0,r0,#1
        0x00008468:    e59f1810    ....    LDR      r1,0x8c80
        0x0000846c:    e5810000    ....    STR      r0,[r1,#0]
        0x00008470:    eb00107d    }...    BL       ARMEnableInt  ; 0xc66c
        0x00008474:    eb000acc    ....    BL       OSTaskIdleHook  ; 0xafac
        0x00008478:    eafffff5    ....    B        0x8454
    OS_Sched
        0x0000847c:    e92d4010    .@-.    STMFD    r13!,{r4,r14}
        0x00008480:    eb001074    t...    BL       ARMDisableInt  ; 0xc658
        0x00008484:    e59f07f8    ....    LDR      r0,0x8c84
        0x00008488:    e5d00000    ....    LDRB     r0,[r0,#0]
        0x0000848c:    e59f17f4    ....    LDR      r1,0x8c88
        0x00008490:    e5d11000    ....    LDRB     r1,[r1,#0]
        0x00008494:    e1900001    ....    ORRS     r0,r0,r1
        0x00008498:    1a00001c    ....    BNE      0x8510
        0x0000849c:    e59f07e8    ....    LDR      r0,0x8c8c
        0x000084a0:    e59f17e8    ....    LDR      r1,0x8c90
        0x000084a4:    e5d11000    ....    LDRB     r1,[r1,#0]
        0x000084a8:    e7d04001    .@..    LDRB     r4,[r0,r1]
        0x000084ac:    e59f07e0    ....    LDR      r0,0x8c94
        0x000084b0:    e7d00004    ....    LDRB     r0,[r0,r4]
        0x000084b4:    e59f17d0    ....    LDR      r1,0x8c8c
        0x000084b8:    e7d10000    ....    LDRB     r0,[r1,r0]
        0x000084bc:    e0800184    ....    ADD      r0,r0,r4,LSL #3
        0x000084c0:    e59f17d0    ....    LDR      r1,0x8c98
        0x000084c4:    e5c10000    ....    STRB     r0,[r1,#0]
        0x000084c8:    e59f07c8    ....    LDR      r0,0x8c98
        0x000084cc:    e5d00000    ....    LDRB     r0,[r0,#0]
        0x000084d0:    e59f17c4    ....    LDR      r1,0x8c9c
        0x000084d4:    e5d11000    ....    LDRB     r1,[r1,#0]
        0x000084d8:    e1500001    ..P.    CMP      r0,r1
        0x000084dc:    0a00000b    ....    BEQ      0x8510
        0x000084e0:    e59f07b8    ....    LDR      r0,0x8ca0
        0x000084e4:    e59f17ac    ....    LDR      r1,0x8c98
        0x000084e8:    e5d11000    ....    LDRB     r1,[r1,#0]
        0x000084ec:    e7900101    ....    LDR      r0,[r0,r1,LSL #2]
        0x000084f0:    e59f17ac    ....    LDR      r1,0x8ca4
        0x000084f4:    e5810000    ....    STR      r0,[r1,#0]
        0x000084f8:    e59f07a8    ....    LDR      r0,0x8ca8
        0x000084fc:    e5900000    ....    LDR      r0,[r0,#0]
        0x00008500:    e2800001    ....    ADD      r0,r0,#1
        0x00008504:    e59f179c    ....    LDR      r1,0x8ca8
        0x00008508:    e5810000    ....    STR      r0,[r1,#0]
        0x0000850c:    eb00100d    ....    BL       OSCtxSw  ; 0xc548
        0x00008510:    eb001055    U...    BL       ARMEnableInt  ; 0xc66c
        0x00008514:    e8bd8010    ....    LDMFD    r13!,{r4,pc}
    OS_TCBInit
        0x00008518:    e92d4ff8    .O-.    STMFD    r13!,{r3-r11,r14}
        0x0000851c:    e1a05000    .P..    MOV      r5,r0
        0x00008520:    e1a09001    ....    MOV      r9,r1
        0x00008524:    e1a0a002    ....    MOV      r10,r2
        0x00008528:    e1a0b003    ....    MOV      r11,r3
        0x0000852c:    e28d8028    (...    ADD      r8,r13,#0x28
        0x00008530:    e89801c0    ....    LDMIA    r8,{r6-r8}
        0x00008534:    eb001047    G...    BL       ARMDisableInt  ; 0xc658
        0x00008538:    e59f076c    l...    LDR      r0,0x8cac
        0x0000853c:    e5904000    .@..    LDR      r4,[r0,#0]
        0x00008540:    e3540000    ..T.    CMP      r4,#0
        0x00008544:    0a000047    G...    BEQ      0x8668
        0x00008548:    e59f175c    \...    LDR      r1,0x8cac
        0x0000854c:    e5940014    ....    LDR      r0,[r4,#0x14]
        0x00008550:    e5810000    ....    STR      r0,[r1,#0]
        0x00008554:    eb001044    D...    BL       ARMEnableInt  ; 0xc66c
        0x00008558:    e5849000    ....    STR      r9,[r4,#0]
        0x0000855c:    e5c4502d    -P..    STRB     r5,[r4,#0x2d]
        0x00008560:    e3a00000    ....    MOV      r0,#0
        0x00008564:    e5c4002c    ,...    STRB     r0,[r4,#0x2c]
        0x00008568:    e3a00000    ....    MOV      r0,#0
        0x0000856c:    e1c402ba    ....    STRH     r0,[r4,#0x2a]
        0x00008570:    e5847004    .p..    STR      r7,[r4,#4]
        0x00008574:    e584600c    .`..    STR      r6,[r4,#0xc]
        0x00008578:    e584a008    ....    STR      r10,[r4,#8]
        0x0000857c:    e1c481b0    ....    STRH     r8,[r4,#0x10]
        0x00008580:    e1c4b1b2    ....    STRH     r11,[r4,#0x12]
        0x00008584:    e3a00000    ....    MOV      r0,#0
        0x00008588:    e5c40032    2...    STRB     r0,[r4,#0x32]
        0x0000858c:    e1a001a5    ....    MOV      r0,r5,LSR #3
        0x00008590:    e5c4002f    /...    STRB     r0,[r4,#0x2f]
        0x00008594:    e5d4002f    /...    LDRB     r0,[r4,#0x2f]
        0x00008598:    e59f1710    ....    LDR      r1,0x8cb0
        0x0000859c:    e7d10000    ....    LDRB     r0,[r1,r0]
        0x000085a0:    e5c40031    1...    STRB     r0,[r4,#0x31]
        0x000085a4:    e2050007    ....    AND      r0,r5,#7
        0x000085a8:    e5c4002e    ....    STRB     r0,[r4,#0x2e]
        0x000085ac:    e5d4002e    ....    LDRB     r0,[r4,#0x2e]
        0x000085b0:    e59f16f8    ....    LDR      r1,0x8cb0
        0x000085b4:    e7d10000    ....    LDRB     r0,[r1,r0]
        0x000085b8:    e5c40030    0...    STRB     r0,[r4,#0x30]
        0x000085bc:    e3a00000    ....    MOV      r0,#0
        0x000085c0:    e584001c    ....    STR      r0,[r4,#0x1c]
        0x000085c4:    e3a00000    ....    MOV      r0,#0
        0x000085c8:    e5840024    $...    STR      r0,[r4,#0x24]
        0x000085cc:    e3a00000    ....    MOV      r0,#0
        0x000085d0:    e5840020     ...    STR      r0,[r4,#0x20]
        0x000085d4:    e1a00004    ....    MOV      r0,r4
        0x000085d8:    eb000a72    r...    BL       OSTCBInitHook  ; 0xafa8
        0x000085dc:    e1a00004    ....    MOV      r0,r4
        0x000085e0:    eb000a60    `...    BL       OSTaskCreateHook  ; 0xaf68
        0x000085e4:    eb00101b    ....    BL       ARMDisableInt  ; 0xc658
        0x000085e8:    e59f06b0    ....    LDR      r0,0x8ca0
        0x000085ec:    e7804105    .A..    STR      r4,[r0,r5,LSL #2]
        0x000085f0:    e59f06bc    ....    LDR      r0,0x8cb4
        0x000085f4:    e5900000    ....    LDR      r0,[r0,#0]
        0x000085f8:    e5840014    ....    STR      r0,[r4,#0x14]
        0x000085fc:    e3a00000    ....    MOV      r0,#0
        0x00008600:    e5840018    ....    STR      r0,[r4,#0x18]
        0x00008604:    e59f06a8    ....    LDR      r0,0x8cb4
        0x00008608:    e5900000    ....    LDR      r0,[r0,#0]
        0x0000860c:    e3500000    ..P.    CMP      r0,#0
        0x00008610:    0a000002    ....    BEQ      0x8620
        0x00008614:    e59f0698    ....    LDR      r0,0x8cb4
        0x00008618:    e5900000    ....    LDR      r0,[r0,#0]
        0x0000861c:    e5804018    .@..    STR      r4,[r0,#0x18]
        0x00008620:    e59f068c    ....    LDR      r0,0x8cb4
        0x00008624:    e5804000    .@..    STR      r4,[r0,#0]
        0x00008628:    e5d40031    1...    LDRB     r0,[r4,#0x31]
        0x0000862c:    e59f165c    \...    LDR      r1,0x8c90
        0x00008630:    e5d11000    ....    LDRB     r1,[r1,#0]
        0x00008634:    e1800001    ....    ORR      r0,r0,r1
        0x00008638:    e59f1650    P...    LDR      r1,0x8c90
        0x0000863c:    e5c10000    ....    STRB     r0,[r1,#0]
        0x00008640:    e5d4102f    /...    LDRB     r1,[r4,#0x2f]
        0x00008644:    e59f2648    H&..    LDR      r2,0x8c94
        0x00008648:    e0810002    ....    ADD      r0,r1,r2
        0x0000864c:    e5d01000    ....    LDRB     r1,[r0,#0]
        0x00008650:    e5d42030    0 ..    LDRB     r2,[r4,#0x30]
        0x00008654:    e1811002    ....    ORR      r1,r1,r2
        0x00008658:    e5c01000    ....    STRB     r1,[r0,#0]
        0x0000865c:    eb001002    ....    BL       ARMEnableInt  ; 0xc66c
        0x00008660:    e3a00000    ....    MOV      r0,#0
        0x00008664:    e8bd8ff8    ....    LDMFD    r13!,{r3-r11,pc}
        0x00008668:    eb000fff    ....    BL       ARMEnableInt  ; 0xc66c
        0x0000866c:    e3a00046    F...    MOV      r0,#0x46
        0x00008670:    eafffffb    ....    B        0x8664
    OSTaskCreateExt
        0x00008674:    e92d4fff    .O-.    STMFD    r13!,{r0-r11,r14}
        0x00008678:    e24dd00c    ..M.    SUB      r13,r13,#0xc
        0x0000867c:    e1a04003    .@..    MOV      r4,r3
        0x00008680:    e59d5050    PP..    LDR      r5,[r13,#0x50]
        0x00008684:    e28da048    H...    ADD      r10,r13,#0x48
        0x00008688:    e89a0440    @...    LDMIA    r10,{r6,r10}
        0x0000868c:    e59d7044    Dp..    LDR      r7,[r13,#0x44]
        0x00008690:    e59d9040    @...    LDR      r9,[r13,#0x40]
        0x00008694:    e354000c    ..T.    CMP      r4,#0xc
        0x00008698:    9a000002    ....    BLS      0x86a8
        0x0000869c:    e3a0002a    *...    MOV      r0,#0x2a
        0x000086a0:    e28dd01c    ....    ADD      r13,r13,#0x1c
        0x000086a4:    e8bd8ff0    ....    LDMFD    r13!,{r4-r11,pc}
        0x000086a8:    eb000fea    ....    BL       ARMDisableInt  ; 0xc658
        0x000086ac:    e59f05ec    ....    LDR      r0,0x8ca0
        0x000086b0:    e7900104    ....    LDR      r0,[r0,r4,LSL #2]
        0x000086b4:    e3500000    ..P.    CMP      r0,#0
        0x000086b8:    1a00002b    +...    BNE      0x876c
        0x000086bc:    e3a00001    ....    MOV      r0,#1
        0x000086c0:    e59f15d8    ....    LDR      r1,0x8ca0
        0x000086c4:    e7810104    ....    STR      r0,[r1,r4,LSL #2]
        0x000086c8:    eb000fe7    ....    BL       ARMEnableInt  ; 0xc66c
        0x000086cc:    e3150003    ....    TST      r5,#3
        0x000086d0:    0a000002    ....    BEQ      0x86e0
        0x000086d4:    e1a01106    ....    MOV      r1,r6,LSL #2
        0x000086d8:    e1a00007    ....    MOV      r0,r7
        0x000086dc:    eb000ab3    ....    BL       __rt_memclr_w  ; 0xb1b0
        0x000086e0:    e1a03005    .0..    MOV      r3,r5
        0x000086e4:    e28d200c    . ..    ADD      r2,r13,#0xc
        0x000086e8:    e8920007    ....    LDMIA    r2,{r0-r2}
        0x000086ec:    eb0009d7    ....    BL       OSTaskStkInit  ; 0xae50
        0x000086f0:    e1a0b000    ....    MOV      r11,r0
        0x000086f4:    e1a03009    .0..    MOV      r3,r9
        0x000086f8:    e1a02007    . ..    MOV      r2,r7
        0x000086fc:    e1a0100b    ....    MOV      r1,r11
        0x00008700:    e1a00004    ....    MOV      r0,r4
        0x00008704:    e58d5008    .P..    STR      r5,[r13,#8]
        0x00008708:    e88d0440    @...    STMIA    r13,{r6,r10}
        0x0000870c:    ebffff81    ....    BL       OS_TCBInit  ; 0x8518
        0x00008710:    e1a08000    ....    MOV      r8,r0
        0x00008714:    e3580000    ..X.    CMP      r8,#0
        0x00008718:    1a00000c    ....    BNE      0x8750
        0x0000871c:    eb000fcd    ....    BL       ARMDisableInt  ; 0xc658
        0x00008720:    e59f0590    ....    LDR      r0,0x8cb8
        0x00008724:    e5d00000    ....    LDRB     r0,[r0,#0]
        0x00008728:    e2800001    ....    ADD      r0,r0,#1
        0x0000872c:    e59f1584    ....    LDR      r1,0x8cb8
        0x00008730:    e5c10000    ....    STRB     r0,[r1,#0]
        0x00008734:    eb000fcc    ....    BL       ARMEnableInt  ; 0xc66c
        0x00008738:    e59f057c    |...    LDR      r0,0x8cbc
        0x0000873c:    e5d00000    ....    LDRB     r0,[r0,#0]
        0x00008740:    e3500001    ..P.    CMP      r0,#1
        0x00008744:    1a000006    ....    BNE      0x8764
        0x00008748:    ebffff4b    K...    BL       OS_Sched  ; 0x847c
        0x0000874c:    ea000004    ....    B        0x8764
        0x00008750:    eb000fc0    ....    BL       ARMDisableInt  ; 0xc658
        0x00008754:    e3a00000    ....    MOV      r0,#0
        0x00008758:    e59f1540    @...    LDR      r1,0x8ca0
        0x0000875c:    e7810104    ....    STR      r0,[r1,r4,LSL #2]
        0x00008760:    eb000fc1    ....    BL       ARMEnableInt  ; 0xc66c
        0x00008764:    e1a00008    ....    MOV      r0,r8
        0x00008768:    eaffffcc    ....    B        0x86a0
        0x0000876c:    eb000fbe    ....    BL       ARMEnableInt  ; 0xc66c
        0x00008770:    e3a00028    (...    MOV      r0,#0x28
        0x00008774:    eaffffc9    ....    B        0x86a0
    OS_MemInit
        0x00008778:    e59f0540    @...    LDR      r0,0x8cc0
        0x0000877c:    e3a01000    ....    MOV      r1,#0
        0x00008780:    e3510004    ..Q.    CMP      r1,#4
        0x00008784:    2a000012    ...*    BCS      0x87d4
        0x00008788:    ea000002    ....    B        0x8798
        0x0000878c:    e2812001    . ..    ADD      r2,r1,#1
        0x00008790:    e3c21b40    @...    BIC      r1,r2,#0x10000
        0x00008794:    eafffff9    ....    B        0x8780
        0x00008798:    e0812101    .!..    ADD      r2,r1,r1,LSL #2
        0x0000879c:    e59f351c    .5..    LDR      r3,0x8cc0
        0x000087a0:    e0832102    .!..    ADD      r2,r3,r2,LSL #2
        0x000087a4:    e2822014    . ..    ADD      r2,r2,#0x14
        0x000087a8:    e5802004    . ..    STR      r2,[r0,#4]
        0x000087ac:    e3a02000    . ..    MOV      r2,#0
        0x000087b0:    e5802000    . ..    STR      r2,[r0,#0]
        0x000087b4:    e3a02000    . ..    MOV      r2,#0
        0x000087b8:    e5802010    . ..    STR      r2,[r0,#0x10]
        0x000087bc:    e3a02000    . ..    MOV      r2,#0
        0x000087c0:    e580200c    . ..    STR      r2,[r0,#0xc]
        0x000087c4:    e3a02000    . ..    MOV      r2,#0
        0x000087c8:    e5802008    . ..    STR      r2,[r0,#8]
        0x000087cc:    e2800014    ....    ADD      r0,r0,#0x14
        0x000087d0:    eaffffed    ....    B        0x878c
        0x000087d4:    e3a02000    . ..    MOV      r2,#0
        0x000087d8:    e5802004    . ..    STR      r2,[r0,#4]
        0x000087dc:    e3a02000    . ..    MOV      r2,#0
        0x000087e0:    e5802000    . ..    STR      r2,[r0,#0]
        0x000087e4:    e3a02000    . ..    MOV      r2,#0
        0x000087e8:    e5802010    . ..    STR      r2,[r0,#0x10]
        0x000087ec:    e3a02000    . ..    MOV      r2,#0
        0x000087f0:    e580200c    . ..    STR      r2,[r0,#0xc]
        0x000087f4:    e3a02000    . ..    MOV      r2,#0
        0x000087f8:    e5802008    . ..    STR      r2,[r0,#8]
        0x000087fc:    e59f24bc    .$..    LDR      r2,0x8cc0
        0x00008800:    e59f34bc    .4..    LDR      r3,0x8cc4
        0x00008804:    e5832000    . ..    STR      r2,[r3,#0]
        0x00008808:    e1a0f00e    ....    MOV      pc,r14
    OS_QInit
        0x0000880c:    e59f04b4    ....    LDR      r0,0x8cc8
        0x00008810:    e59f24b4    .$..    LDR      r2,0x8ccc
        0x00008814:    e3a01000    ....    MOV      r1,#0
        0x00008818:    e3510004    ..Q.    CMP      r1,#4
        0x0000881c:    2a000007    ...*    BCS      0x8840
        0x00008820:    ea000002    ....    B        0x8830
        0x00008824:    e2813001    .0..    ADD      r3,r1,#1
        0x00008828:    e3c31b40    @...    BIC      r1,r3,#0x10000
        0x0000882c:    eafffff9    ....    B        0x8818
        0x00008830:    e5802000    . ..    STR      r2,[r0,#0]
        0x00008834:    e2800018    ....    ADD      r0,r0,#0x18
        0x00008838:    e2822018    . ..    ADD      r2,r2,#0x18
        0x0000883c:    eafffff8    ....    B        0x8824
        0x00008840:    e3a03000    .0..    MOV      r3,#0
        0x00008844:    e5803000    .0..    STR      r3,[r0,#0]
        0x00008848:    e59f3478    x4..    LDR      r3,0x8cc8
        0x0000884c:    e59fc47c    |...    LDR      r12,0x8cd0
        0x00008850:    e58c3000    .0..    STR      r3,[r12,#0]
        0x00008854:    e1a0f00e    ....    MOV      pc,r14
    OSInit
        0x00008858:    e92d43f0    .C-.    STMFD    r13!,{r4-r9,r14}
        0x0000885c:    e24dd014    ..M.    SUB      r13,r13,#0x14
        0x00008860:    eb0009ea    ....    BL       OSInitHookBegin  ; 0xb010
        0x00008864:    e3a00000    ....    MOV      r0,#0
        0x00008868:    e59f1464    d...    LDR      r1,0x8cd4
        0x0000886c:    e5810000    ....    STR      r0,[r1,#0]
        0x00008870:    e3a00000    ....    MOV      r0,#0
        0x00008874:    e59f1408    ....    LDR      r1,0x8c84
        0x00008878:    e5c10000    ....    STRB     r0,[r1,#0]
        0x0000887c:    e3a00000    ....    MOV      r0,#0
        0x00008880:    e59f1400    ....    LDR      r1,0x8c88
        0x00008884:    e5c10000    ....    STRB     r0,[r1,#0]
        0x00008888:    e3a00000    ....    MOV      r0,#0
        0x0000888c:    e59f1424    $...    LDR      r1,0x8cb8
        0x00008890:    e5c10000    ....    STRB     r0,[r1,#0]
        0x00008894:    e3a00000    ....    MOV      r0,#0
        0x00008898:    e59f141c    ....    LDR      r1,0x8cbc
        0x0000889c:    e5c10000    ....    STRB     r0,[r1,#0]
        0x000088a0:    e3a00000    ....    MOV      r0,#0
        0x000088a4:    e59f13d4    ....    LDR      r1,0x8c80
        0x000088a8:    e5810000    ....    STR      r0,[r1,#0]
        0x000088ac:    e3a00000    ....    MOV      r0,#0
        0x000088b0:    e59f13f0    ....    LDR      r1,0x8ca8
        0x000088b4:    e5810000    ....    STR      r0,[r1,#0]
        0x000088b8:    e3a00000    ....    MOV      r0,#0
        0x000088bc:    e59f13cc    ....    LDR      r1,0x8c90
        0x000088c0:    e5c10000    ....    STRB     r0,[r1,#0]
        0x000088c4:    e59f93c8    ....    LDR      r9,0x8c94
        0x000088c8:    e3a04000    .@..    MOV      r4,#0
        0x000088cc:    e3540002    ..T.    CMP      r4,#2
        0x000088d0:    2a000006    ...*    BCS      0x88f0
        0x000088d4:    ea000002    ....    B        0x88e4
        0x000088d8:    e2840001    ....    ADD      r0,r4,#1
        0x000088dc:    e3c04b40    @K..    BIC      r4,r0,#0x10000
        0x000088e0:    eafffff9    ....    B        0x88cc
        0x000088e4:    e3a00000    ....    MOV      r0,#0
        0x000088e8:    e4c90001    ....    STRB     r0,[r9],#1
        0x000088ec:    eafffff9    ....    B        0x88d8
        0x000088f0:    e3a00000    ....    MOV      r0,#0
        0x000088f4:    e59f13a0    ....    LDR      r1,0x8c9c
        0x000088f8:    e5c10000    ....    STRB     r0,[r1,#0]
        0x000088fc:    e3a00000    ....    MOV      r0,#0
        0x00008900:    e59f1390    ....    LDR      r1,0x8c98
        0x00008904:    e5c10000    ....    STRB     r0,[r1,#0]
        0x00008908:    e3a00000    ....    MOV      r0,#0
        0x0000890c:    e59f1390    ....    LDR      r1,0x8ca4
        0x00008910:    e5810000    ....    STR      r0,[r1,#0]
        0x00008914:    e3a00000    ....    MOV      r0,#0
        0x00008918:    e59f13b8    ....    LDR      r1,0x8cd8
        0x0000891c:    e5810000    ....    STR      r0,[r1,#0]
        0x00008920:    e3a00000    ....    MOV      r0,#0
        0x00008924:    e59f1388    ....    LDR      r1,0x8cb4
        0x00008928:    e5810000    ....    STR      r0,[r1,#0]
        0x0000892c:    e3a04000    .@..    MOV      r4,#0
        0x00008930:    e354000d    ..T.    CMP      r4,#0xd
        0x00008934:    2a000007    ...*    BCS      0x8958
        0x00008938:    ea000002    ....    B        0x8948
        0x0000893c:    e2840001    ....    ADD      r0,r4,#1
        0x00008940:    e3c04b40    @K..    BIC      r4,r0,#0x10000
        0x00008944:    eafffff9    ....    B        0x8930
        0x00008948:    e3a00000    ....    MOV      r0,#0
        0x0000894c:    e59f134c    L...    LDR      r1,0x8ca0
        0x00008950:    e7810104    ....    STR      r0,[r1,r4,LSL #2]
        0x00008954:    eafffff8    ....    B        0x893c
        0x00008958:    e59f637c    |c..    LDR      r6,0x8cdc
        0x0000895c:    e59f737c    |s..    LDR      r7,0x8ce0
        0x00008960:    e3a04000    .@..    MOV      r4,#0
        0x00008964:    e354000b    ..T.    CMP      r4,#0xb
        0x00008968:    2a000007    ...*    BCS      0x898c
        0x0000896c:    ea000002    ....    B        0x897c
        0x00008970:    e2840001    ....    ADD      r0,r4,#1
        0x00008974:    e3c04b40    @K..    BIC      r4,r0,#0x10000
        0x00008978:    eafffff9    ....    B        0x8964
        0x0000897c:    e5867014    .p..    STR      r7,[r6,#0x14]
        0x00008980:    e2866034    4`..    ADD      r6,r6,#0x34
        0x00008984:    e2877034    4p..    ADD      r7,r7,#0x34
        0x00008988:    eafffff8    ....    B        0x8970
        0x0000898c:    e3a00000    ....    MOV      r0,#0
        0x00008990:    e5860014    ....    STR      r0,[r6,#0x14]
        0x00008994:    e59f0340    @...    LDR      r0,0x8cdc
        0x00008998:    e59f130c    ....    LDR      r1,0x8cac
        0x0000899c:    e5810000    ....    STR      r0,[r1,#0]
        0x000089a0:    e59f533c    <S..    LDR      r5,0x8ce4
        0x000089a4:    e59f833c    <...    LDR      r8,0x8ce8
        0x000089a8:    e3a04000    .@..    MOV      r4,#0
        0x000089ac:    e3540009    ..T.    CMP      r4,#9
        0x000089b0:    2a000009    ...*    BCS      0x89dc
        0x000089b4:    ea000002    ....    B        0x89c4
        0x000089b8:    e2840001    ....    ADD      r0,r4,#1
        0x000089bc:    e3c04b40    @K..    BIC      r4,r0,#0x10000
        0x000089c0:    eafffff9    ....    B        0x89ac
        0x000089c4:    e3a00000    ....    MOV      r0,#0
        0x000089c8:    e5c50000    ....    STRB     r0,[r5,#0]
        0x000089cc:    e5858004    ....    STR      r8,[r5,#4]
        0x000089d0:    e285500c    .P..    ADD      r5,r5,#0xc
        0x000089d4:    e288800c    ....    ADD      r8,r8,#0xc
        0x000089d8:    eafffff6    ....    B        0x89b8
        0x000089dc:    e3a00000    ....    MOV      r0,#0
        0x000089e0:    e5c50000    ....    STRB     r0,[r5,#0]
        0x000089e4:    e3a00000    ....    MOV      r0,#0
        0x000089e8:    e5850004    ....    STR      r0,[r5,#4]
        0x000089ec:    e59f02f0    ....    LDR      r0,0x8ce4
        0x000089f0:    e59f12f4    ....    LDR      r1,0x8cec
        0x000089f4:    e5810000    ....    STR      r0,[r1,#0]
        0x000089f8:    eb000996    ....    BL       OS_FlagInit  ; 0xb058
        0x000089fc:    ebffff82    ....    BL       OS_QInit  ; 0x880c
        0x00008a00:    ebffff5c    \...    BL       OS_MemInit  ; 0x8778
        0x00008a04:    e3a03003    .0..    MOV      r3,#3
        0x00008a08:    e3a02000    . ..    MOV      r2,#0
        0x00008a0c:    e3a01f80    ....    MOV      r1,#0x200
        0x00008a10:    e59f02d8    ....    LDR      r0,0x8cf0
        0x00008a14:    e98d000f    ....    STMIB    r13,{r0-r3}
        0x00008a18:    e59f32d4    .2..    LDR      r3,0x8cf4
        0x00008a1c:    e58d3000    .0..    STR      r3,[r13,#0]
        0x00008a20:    e3a0300c    .0..    MOV      r3,#0xc
        0x00008a24:    e59f22cc    ."..    LDR      r2,0x8cf8
        0x00008a28:    e3a01000    ....    MOV      r1,#0
        0x00008a2c:    e59f02c8    ....    LDR      r0,0x8cfc
        0x00008a30:    ebffff0f    ....    BL       OSTaskCreateExt  ; 0x8674
        0x00008a34:    eb00097f    ....    BL       OSInitHookEnd  ; 0xb038
        0x00008a38:    e28dd014    ....    ADD      r13,r13,#0x14
        0x00008a3c:    e8bd83f0    ....    LDMFD    r13!,{r4-r9,pc}
    OSIntEnter
        0x00008a40:    e92d4008    .@-.    STMFD    r13!,{r3,r14}
        0x00008a44:    eb000f03    ....    BL       ARMDisableInt  ; 0xc658
        0x00008a48:    e59f0234    4...    LDR      r0,0x8c84
        0x00008a4c:    e5d00000    ....    LDRB     r0,[r0,#0]
        0x00008a50:    e35000ff    ..P.    CMP      r0,#0xff
        0x00008a54:    2a000004    ...*    BCS      0x8a6c
        0x00008a58:    e59f0224    $...    LDR      r0,0x8c84
        0x00008a5c:    e5d00000    ....    LDRB     r0,[r0,#0]
        0x00008a60:    e2800001    ....    ADD      r0,r0,#1
        0x00008a64:    e59f1218    ....    LDR      r1,0x8c84
        0x00008a68:    e5c10000    ....    STRB     r0,[r1,#0]
        0x00008a6c:    eb000efe    ....    BL       ARMEnableInt  ; 0xc66c
        0x00008a70:    e8bd8008    ....    LDMFD    r13!,{r3,pc}
    OSIntExit
        0x00008a74:    e92d4008    .@-.    STMFD    r13!,{r3,r14}
        0x00008a78:    eb000ef6    ....    BL       ARMDisableInt  ; 0xc658
        0x00008a7c:    e59f0200    ....    LDR      r0,0x8c84
        0x00008a80:    e5d00000    ....    LDRB     r0,[r0,#0]
        0x00008a84:    e3500000    ..P.    CMP      r0,#0
        0x00008a88:    0a000004    ....    BEQ      0x8aa0
        0x00008a8c:    e59f01f0    ....    LDR      r0,0x8c84
        0x00008a90:    e5d00000    ....    LDRB     r0,[r0,#0]
        0x00008a94:    e2400001    ..@.    SUB      r0,r0,#1
        0x00008a98:    e59f11e4    ....    LDR      r1,0x8c84
        0x00008a9c:    e5c10000    ....    STRB     r0,[r1,#0]
        0x00008aa0:    e59f01dc    ....    LDR      r0,0x8c84
        0x00008aa4:    e5d00000    ....    LDRB     r0,[r0,#0]
        0x00008aa8:    e59f11d8    ....    LDR      r1,0x8c88
        0x00008aac:    e5d11000    ....    LDRB     r1,[r1,#0]
        0x00008ab0:    e1900001    ....    ORRS     r0,r0,r1
        0x00008ab4:    1a000022    "...    BNE      0x8b44
        0x00008ab8:    e59f01cc    ....    LDR      r0,0x8c8c
        0x00008abc:    e59f11cc    ....    LDR      r1,0x8c90
        0x00008ac0:    e5d11000    ....    LDRB     r1,[r1,#0]
        0x00008ac4:    e7d00001    ....    LDRB     r0,[r0,r1]
        0x00008ac8:    e59f1230    0...    LDR      r1,0x8d00
        0x00008acc:    e5c10000    ....    STRB     r0,[r1,#0]
        0x00008ad0:    e59f01bc    ....    LDR      r0,0x8c94
        0x00008ad4:    e59f1224    $...    LDR      r1,0x8d00
        0x00008ad8:    e5d11000    ....    LDRB     r1,[r1,#0]
        0x00008adc:    e7d00001    ....    LDRB     r0,[r0,r1]
        0x00008ae0:    e59f11a4    ....    LDR      r1,0x8c8c
        0x00008ae4:    e7d10000    ....    LDRB     r0,[r1,r0]
        0x00008ae8:    e59f1210    ....    LDR      r1,0x8d00
        0x00008aec:    e5d11000    ....    LDRB     r1,[r1,#0]
        0x00008af0:    e0800181    ....    ADD      r0,r0,r1,LSL #3
        0x00008af4:    e59f119c    ....    LDR      r1,0x8c98
        0x00008af8:    e5c10000    ....    STRB     r0,[r1,#0]
        0x00008afc:    e59f0194    ....    LDR      r0,0x8c98
        0x00008b00:    e5d00000    ....    LDRB     r0,[r0,#0]
        0x00008b04:    e59f1190    ....    LDR      r1,0x8c9c
        0x00008b08:    e5d11000    ....    LDRB     r1,[r1,#0]
        0x00008b0c:    e1500001    ..P.    CMP      r0,r1
        0x00008b10:    0a00000b    ....    BEQ      0x8b44
        0x00008b14:    e59f0184    ....    LDR      r0,0x8ca0
        0x00008b18:    e59f1178    x...    LDR      r1,0x8c98
        0x00008b1c:    e5d11000    ....    LDRB     r1,[r1,#0]
        0x00008b20:    e7900101    ....    LDR      r0,[r0,r1,LSL #2]
        0x00008b24:    e59f1178    x...    LDR      r1,0x8ca4
        0x00008b28:    e5810000    ....    STR      r0,[r1,#0]
        0x00008b2c:    e59f0174    t...    LDR      r0,0x8ca8
        0x00008b30:    e5900000    ....    LDR      r0,[r0,#0]
        0x00008b34:    e2800001    ....    ADD      r0,r0,#1
        0x00008b38:    e59f1168    h...    LDR      r1,0x8ca8
        0x00008b3c:    e5810000    ....    STR      r0,[r1,#0]
        0x00008b40:    eb000e97    ....    BL       OSIntCtxSw  ; 0xc5a4
        0x00008b44:    eb000ec8    ....    BL       ARMEnableInt  ; 0xc66c
        0x00008b48:    e8bd8008    ....    LDMFD    r13!,{r3,pc}
    OSSchedLock
        0x00008b4c:    e92d4008    .@-.    STMFD    r13!,{r3,r14}
        0x00008b50:    e59f0164    d...    LDR      r0,0x8cbc
        0x00008b54:    e5d00000    ....    LDRB     r0,[r0,#0]
        0x00008b58:    e3500001    ..P.    CMP      r0,#1
        0x00008b5c:    1a00000a    ....    BNE      0x8b8c
        0x00008b60:    eb000ebc    ....    BL       ARMDisableInt  ; 0xc658
        0x00008b64:    e59f011c    ....    LDR      r0,0x8c88
        0x00008b68:    e5d00000    ....    LDRB     r0,[r0,#0]
        0x00008b6c:    e35000ff    ..P.    CMP      r0,#0xff
        0x00008b70:    2a000004    ...*    BCS      0x8b88
        0x00008b74:    e59f010c    ....    LDR      r0,0x8c88
        0x00008b78:    e5d00000    ....    LDRB     r0,[r0,#0]
        0x00008b7c:    e2800001    ....    ADD      r0,r0,#1
        0x00008b80:    e59f1100    ....    LDR      r1,0x8c88
        0x00008b84:    e5c10000    ....    STRB     r0,[r1,#0]
        0x00008b88:    eb000eb7    ....    BL       ARMEnableInt  ; 0xc66c
        0x00008b8c:    e8bd8008    ....    LDMFD    r13!,{r3,pc}
    OSSchedUnlock
        0x00008b90:    e92d4008    .@-.    STMFD    r13!,{r3,r14}
        0x00008b94:    e59f0120     ...    LDR      r0,0x8cbc
        0x00008b98:    e5d00000    ....    LDRB     r0,[r0,#0]
        0x00008b9c:    e3500001    ..P.    CMP      r0,#1
        0x00008ba0:    1a000015    ....    BNE      0x8bfc
        0x00008ba4:    eb000eab    ....    BL       ARMDisableInt  ; 0xc658
        0x00008ba8:    e59f00d8    ....    LDR      r0,0x8c88
        0x00008bac:    e5d00000    ....    LDRB     r0,[r0,#0]
        0x00008bb0:    e3500000    ..P.    CMP      r0,#0
        0x00008bb4:    0a00000f    ....    BEQ      0x8bf8
        0x00008bb8:    e59f00c8    ....    LDR      r0,0x8c88
        0x00008bbc:    e5d00000    ....    LDRB     r0,[r0,#0]
        0x00008bc0:    e2400001    ..@.    SUB      r0,r0,#1
        0x00008bc4:    e59f10bc    ....    LDR      r1,0x8c88
        0x00008bc8:    e5c10000    ....    STRB     r0,[r1,#0]
        0x00008bcc:    e59f00b4    ....    LDR      r0,0x8c88
        0x00008bd0:    e5d00000    ....    LDRB     r0,[r0,#0]
        0x00008bd4:    e59f10a8    ....    LDR      r1,0x8c84
        0x00008bd8:    e5d11000    ....    LDRB     r1,[r1,#0]
        0x00008bdc:    e1900001    ....    ORRS     r0,r0,r1
        0x00008be0:    1a000002    ....    BNE      0x8bf0
        0x00008be4:    eb000ea0    ....    BL       ARMEnableInt  ; 0xc66c
        0x00008be8:    ebfffe23    #...    BL       OS_Sched  ; 0x847c
        0x00008bec:    ea000002    ....    B        0x8bfc
        0x00008bf0:    eb000e9d    ....    BL       ARMEnableInt  ; 0xc66c
        0x00008bf4:    ea000000    ....    B        0x8bfc
        0x00008bf8:    eb000e9b    ....    BL       ARMEnableInt  ; 0xc66c
        0x00008bfc:    e8bd8008    ....    LDMFD    r13!,{r3,pc}
    OSStart
        0x00008c00:    e92d4038    8@-.    STMFD    r13!,{r3-r5,r14}
        0x00008c04:    e59f00b0    ....    LDR      r0,0x8cbc
        0x00008c08:    e5d00000    ....    LDRB     r0,[r0,#0]
        0x00008c0c:    e3500000    ..P.    CMP      r0,#0
        0x00008c10:    1a000019    ....    BNE      0x8c7c
        0x00008c14:    e59f0070    p...    LDR      r0,0x8c8c
        0x00008c18:    e59f1070    p...    LDR      r1,0x8c90
        0x00008c1c:    e5d11000    ....    LDRB     r1,[r1,#0]
        0x00008c20:    e7d04001    .@..    LDRB     r4,[r0,r1]
        0x00008c24:    e59f0068    h...    LDR      r0,0x8c94
        0x00008c28:    e7d00004    ....    LDRB     r0,[r0,r4]
        0x00008c2c:    e59f1058    X...    LDR      r1,0x8c8c
        0x00008c30:    e7d15000    .P..    LDRB     r5,[r1,r0]
        0x00008c34:    e0850184    ....    ADD      r0,r5,r4,LSL #3
        0x00008c38:    e59f1058    X...    LDR      r1,0x8c98
        0x00008c3c:    e5c10000    ....    STRB     r0,[r1,#0]
        0x00008c40:    e59f0050    P...    LDR      r0,0x8c98
        0x00008c44:    e5d00000    ....    LDRB     r0,[r0,#0]
        0x00008c48:    e59f104c    L...    LDR      r1,0x8c9c
        0x00008c4c:    e5c10000    ....    STRB     r0,[r1,#0]
        0x00008c50:    e59f0048    H...    LDR      r0,0x8ca0
        0x00008c54:    e59f103c    <...    LDR      r1,0x8c98
        0x00008c58:    e5d11000    ....    LDRB     r1,[r1,#0]
        0x00008c5c:    e7900101    ....    LDR      r0,[r0,r1,LSL #2]
        0x00008c60:    e59f103c    <...    LDR      r1,0x8ca4
        0x00008c64:    e5810000    ....    STR      r0,[r1,#0]
        0x00008c68:    e59f0034    4...    LDR      r0,0x8ca4
        0x00008c6c:    e5900000    ....    LDR      r0,[r0,#0]
        0x00008c70:    e59f1060    `...    LDR      r1,0x8cd8
        0x00008c74:    e5810000    ....    STR      r0,[r1,#0]
        0x00008c78:    eb000e26    &...    BL       OSStartHighRdy  ; 0xc518
        0x00008c7c:    e8bd8038    8...    LDMFD    r13!,{r3-r5,pc}
    $d
        0x00008c80:    0000f9b0    ....    DCD    63920
        0x00008c84:    0000f9a4    ....    DCD    63908
        0x00008c88:    0000f9a6    ....    DCD    63910
        0x00008c8c:    0000c6b0    ....    DCD    50864
        0x00008c90:    0000f9a9    ....    DCD    63913
        0x00008c94:    0000f9aa    ....    DCD    63914
        0x00008c98:    0000f9a8    ....    DCD    63912
        0x00008c9c:    0000f9a7    ....    DCD    63911
        0x00008ca0:    000101c4    ....    DCD    65988
        0x00008ca4:    000101bc    ....    DCD    65980
        0x00008ca8:    0000f8e4    ....    DCD    63716
        0x00008cac:    000101b8    ....    DCD    65976
        0x00008cb0:    0000c6a8    ....    DCD    50856
        0x00008cb4:    000101c0    ....    DCD    65984
        0x00008cb8:    0000f9ad    ....    DCD    63917
        0x00008cbc:    0000f9ac    ....    DCD    63916
        0x00008cc0:    0001046c    l...    DCD    66668
        0x00008cc4:    00010468    h...    DCD    66664
        0x00008cc8:    000104d4    ....    DCD    66772
        0x00008ccc:    000104ec    ....    DCD    66796
        0x00008cd0:    000104d0    ....    DCD    66768
        0x00008cd4:    0001054c    L...    DCD    66892
        0x00008cd8:    000101b4    ....    DCD    65972
        0x00008cdc:    000101f8    ....    DCD    66040
        0x00008ce0:    0001022c    ,...    DCD    66092
        0x00008ce4:    0000f8ec    ....    DCD    63724
        0x00008ce8:    0000f8f8    ....    DCD    63736
        0x00008cec:    0000f8e8    ....    DCD    63720
        0x00008cf0:    0000f9b4    ....    DCD    63924
        0x00008cf4:    0000ffff    ....    DCD    65535
        0x00008cf8:    000101b0    ....    DCD    65968
    $f
        0x00008cfc:    00008444    D...    DCD    33860
        0x00008d00:    0000f9a5    ....    DCD    63909
    OSTimeTick
    $a
        0x00008d04:    e92d4010    .@-.    STMFD    r13!,{r4,r14}
        0x00008d08:    eb0008a4    ....    BL       OSTimeTickHook  ; 0xafa0
        0x00008d0c:    eb000e51    Q...    BL       ARMDisableInt  ; 0xc658
        0x00008d10:    e51f0044    D...    LDR      r0,0x8cd4
        0x00008d14:    e5900000    ....    LDR      r0,[r0,#0]
        0x00008d18:    e2800001    ....    ADD      r0,r0,#1
        0x00008d1c:    e51f1050    P...    LDR      r1,0x8cd4
        0x00008d20:    e5810000    ....    STR      r0,[r1,#0]
        0x00008d24:    eb000e50    P...    BL       ARMEnableInt  ; 0xc66c
        0x00008d28:    e51f007c    |...    LDR      r0,0x8cb4
        0x00008d2c:    e5904000    .@..    LDR      r4,[r0,#0]
        0x00008d30:    e1a00000    ....    NOP      
        0x00008d34:    e5d4002d    -...    LDRB     r0,[r4,#0x2d]
        0x00008d38:    e350000c    ..P.    CMP      r0,#0xc
        0x00008d3c:    0a00001f    ....    BEQ      0x8dc0
        0x00008d40:    eb000e44    D...    BL       ARMDisableInt  ; 0xc658
        0x00008d44:    e1d402ba    ....    LDRH     r0,[r4,#0x2a]
        0x00008d48:    e3500000    ..P.    CMP      r0,#0
        0x00008d4c:    0a000018    ....    BEQ      0x8db4
        0x00008d50:    e1d402ba    ....    LDRH     r0,[r4,#0x2a]
        0x00008d54:    e2400001    ..@.    SUB      r0,r0,#1
        0x00008d58:    e1a00800    ....    MOV      r0,r0,LSL #16
        0x00008d5c:    e1b00820     ...    MOVS     r0,r0,LSR #16
        0x00008d60:    e1c402ba    ....    STRH     r0,[r4,#0x2a]
        0x00008d64:    1a000012    ....    BNE      0x8db4
        0x00008d68:    e5d4002c    ,...    LDRB     r0,[r4,#0x2c]
        0x00008d6c:    e3100008    ....    TST      r0,#8
        0x00008d70:    1a00000d    ....    BNE      0x8dac
        0x00008d74:    e5d40031    1...    LDRB     r0,[r4,#0x31]
        0x00008d78:    e51f10f0    ....    LDR      r1,0x8c90
        0x00008d7c:    e5d11000    ....    LDRB     r1,[r1,#0]
        0x00008d80:    e1800001    ....    ORR      r0,r0,r1
        0x00008d84:    e51f10fc    ....    LDR      r1,0x8c90
        0x00008d88:    e5c10000    ....    STRB     r0,[r1,#0]
        0x00008d8c:    e5d4102f    /...    LDRB     r1,[r4,#0x2f]
        0x00008d90:    e51f2104    .!..    LDR      r2,0x8c94
        0x00008d94:    e0810002    ....    ADD      r0,r1,r2
        0x00008d98:    e5d01000    ....    LDRB     r1,[r0,#0]
        0x00008d9c:    e5d42030    0 ..    LDRB     r2,[r4,#0x30]
        0x00008da0:    e1811002    ....    ORR      r1,r1,r2
        0x00008da4:    e5c01000    ....    STRB     r1,[r0,#0]
        0x00008da8:    ea000001    ....    B        0x8db4
        0x00008dac:    e3a00001    ....    MOV      r0,#1
        0x00008db0:    e1c402ba    ....    STRH     r0,[r4,#0x2a]
        0x00008db4:    e5944014    .@..    LDR      r4,[r4,#0x14]
        0x00008db8:    eb000e2b    +...    BL       ARMEnableInt  ; 0xc66c
        0x00008dbc:    eaffffdc    ....    B        0x8d34
        0x00008dc0:    e8bd8010    ....    LDMFD    r13!,{r4,pc}
    OSVersion
        0x00008dc4:    e3a000fb    ....    MOV      r0,#0xfb
        0x00008dc8:    e1a0f00e    ....    MOV      pc,r14
    OS_Dummy
        0x00008dcc:    e1a0f00e    ....    MOV      pc,r14
    OS_EventTaskRdy
        0x00008dd0:    e92d41f0    .A-.    STMFD    r13!,{r4-r8,r14}
        0x00008dd4:    e1a03000    .0..    MOV      r3,r0
        0x00008dd8:    e5d37001    .p..    LDRB     r7,[r3,#1]
        0x00008ddc:    e51f8158    X...    LDR      r8,0x8c8c
        0x00008de0:    e7d8c007    ....    LDRB     r12,[r8,r7]
        0x00008de4:    e51f713c    <q..    LDR      r7,0x8cb0
        0x00008de8:    e7d7600c    .`..    LDRB     r6,[r7,r12]
        0x00008dec:    e083700c    .p..    ADD      r7,r3,r12
        0x00008df0:    e5d77008    .p..    LDRB     r7,[r7,#8]
        0x00008df4:    e51f8170    p...    LDR      r8,0x8c8c
        0x00008df8:    e7d84007    .@..    LDRB     r4,[r8,r7]
        0x00008dfc:    e51f7154    Tq..    LDR      r7,0x8cb0
        0x00008e00:    e7d75004    .P..    LDRB     r5,[r7,r4]
        0x00008e04:    e084718c    .q..    ADD      r7,r4,r12,LSL #3
        0x00008e08:    e20700ff    ....    AND      r0,r7,#0xff
        0x00008e0c:    e083700c    .p..    ADD      r7,r3,r12
        0x00008e10:    e5d77008    .p..    LDRB     r7,[r7,#8]
        0x00008e14:    e1d77005    .p..    BICS     r7,r7,r5
        0x00008e18:    e083800c    ....    ADD      r8,r3,r12
        0x00008e1c:    e5c87008    .p..    STRB     r7,[r8,#8]
        0x00008e20:    1a000002    ....    BNE      0x8e30
        0x00008e24:    e5d37001    .p..    LDRB     r7,[r3,#1]
        0x00008e28:    e1c77006    .p..    BIC      r7,r7,r6
        0x00008e2c:    e5c37001    .p..    STRB     r7,[r3,#1]
        0x00008e30:    e51f7198    .q..    LDR      r7,0x8ca0
        0x00008e34:    e797e100    ....    LDR      r14,[r7,r0,LSL #2]
        0x00008e38:    e3a07000    .p..    MOV      r7,#0
        0x00008e3c:    e1ce72ba    .r..    STRH     r7,[r14,#0x2a]
        0x00008e40:    e3a07000    .p..    MOV      r7,#0
        0x00008e44:    e58e701c    .p..    STR      r7,[r14,#0x1c]
        0x00008e48:    e58e1020     ...    STR      r1,[r14,#0x20]
        0x00008e4c:    e5de702c    ,p..    LDRB     r7,[r14,#0x2c]
        0x00008e50:    e1c77002    .p..    BIC      r7,r7,r2
        0x00008e54:    e5ce702c    ,p..    STRB     r7,[r14,#0x2c]
        0x00008e58:    e5de702c    ,p..    LDRB     r7,[r14,#0x2c]
        0x00008e5c:    e3570000    ..W.    CMP      r7,#0
        0x00008e60:    1a000009    ....    BNE      0x8e8c
        0x00008e64:    e51f71dc    .q..    LDR      r7,0x8c90
        0x00008e68:    e5d77000    .p..    LDRB     r7,[r7,#0]
        0x00008e6c:    e1877006    .p..    ORR      r7,r7,r6
        0x00008e70:    e51f81e8    ....    LDR      r8,0x8c90
        0x00008e74:    e5c87000    .p..    STRB     r7,[r8,#0]
        0x00008e78:    e51f71ec    .q..    LDR      r7,0x8c94
        0x00008e7c:    e7d7700c    .p..    LDRB     r7,[r7,r12]
        0x00008e80:    e1877005    .p..    ORR      r7,r7,r5
        0x00008e84:    e51f81f8    ....    LDR      r8,0x8c94
        0x00008e88:    e7c8700c    .p..    STRB     r7,[r8,r12]
        0x00008e8c:    e8bd81f0    ....    LDMFD    r13!,{r4-r8,pc}
    OS_EventTaskWait
        0x00008e90:    e51f11c0    ....    LDR      r1,0x8cd8
        0x00008e94:    e5911000    ....    LDR      r1,[r1,#0]
        0x00008e98:    e581001c    ....    STR      r0,[r1,#0x1c]
        0x00008e9c:    e51f21cc    .!..    LDR      r2,0x8cd8
        0x00008ea0:    e5922000    . ..    LDR      r2,[r2,#0]
        0x00008ea4:    e5d2202f    / ..    LDRB     r2,[r2,#0x2f]
        0x00008ea8:    e51f321c    .2..    LDR      r3,0x8c94
        0x00008eac:    e0821003    ....    ADD      r1,r2,r3
        0x00008eb0:    e5d12000    . ..    LDRB     r2,[r1,#0]
        0x00008eb4:    e51f31e4    .1..    LDR      r3,0x8cd8
        0x00008eb8:    e5933000    .0..    LDR      r3,[r3,#0]
        0x00008ebc:    e5d33030    00..    LDRB     r3,[r3,#0x30]
        0x00008ec0:    e1d22003    . ..    BICS     r2,r2,r3
        0x00008ec4:    e5c12000    . ..    STRB     r2,[r1,#0]
        0x00008ec8:    0a000000    ....    BEQ      0x8ed0
        0x00008ecc:    ea000007    ....    B        0x8ef0
        0x00008ed0:    e51f1200    ....    LDR      r1,0x8cd8
        0x00008ed4:    e5911000    ....    LDR      r1,[r1,#0]
        0x00008ed8:    e5d11031    1...    LDRB     r1,[r1,#0x31]
        0x00008edc:    e51f2254    T"..    LDR      r2,0x8c90
        0x00008ee0:    e5d22000    . ..    LDRB     r2,[r2,#0]
        0x00008ee4:    e1c21001    ....    BIC      r1,r2,r1
        0x00008ee8:    e51f2260    `"..    LDR      r2,0x8c90
        0x00008eec:    e5c21000    ....    STRB     r1,[r2,#0]
        0x00008ef0:    e51f2220     "..    LDR      r2,0x8cd8
        0x00008ef4:    e5922000    . ..    LDR      r2,[r2,#0]
        0x00008ef8:    e5d2202f    / ..    LDRB     r2,[r2,#0x2f]
        0x00008efc:    e0822000    . ..    ADD      r2,r2,r0
        0x00008f00:    e2821008    ....    ADD      r1,r2,#8
        0x00008f04:    e5d22008    . ..    LDRB     r2,[r2,#8]
        0x00008f08:    e51f3238    82..    LDR      r3,0x8cd8
        0x00008f0c:    e5933000    .0..    LDR      r3,[r3,#0]
        0x00008f10:    e5d33030    00..    LDRB     r3,[r3,#0x30]
        0x00008f14:    e1822003    . ..    ORR      r2,r2,r3
        0x00008f18:    e5c12000    . ..    STRB     r2,[r1,#0]
        0x00008f1c:    e5d01001    ....    LDRB     r1,[r0,#1]
        0x00008f20:    e51f2250    P"..    LDR      r2,0x8cd8
        0x00008f24:    e5922000    . ..    LDR      r2,[r2,#0]
        0x00008f28:    e5d22031    1 ..    LDRB     r2,[r2,#0x31]
        0x00008f2c:    e1811002    ....    ORR      r1,r1,r2
        0x00008f30:    e5c01001    ....    STRB     r1,[r0,#1]
        0x00008f34:    e1a0f00e    ....    MOV      pc,r14
    OS_EventTO
        0x00008f38:    e51f2268    h"..    LDR      r2,0x8cd8
        0x00008f3c:    e5922000    . ..    LDR      r2,[r2,#0]
        0x00008f40:    e5d2202f    / ..    LDRB     r2,[r2,#0x2f]
        0x00008f44:    e0822000    . ..    ADD      r2,r2,r0
        0x00008f48:    e2821008    ....    ADD      r1,r2,#8
        0x00008f4c:    e5d22008    . ..    LDRB     r2,[r2,#8]
        0x00008f50:    e51f3280    .2..    LDR      r3,0x8cd8
        0x00008f54:    e5933000    .0..    LDR      r3,[r3,#0]
        0x00008f58:    e5d33030    00..    LDRB     r3,[r3,#0x30]
        0x00008f5c:    e1d22003    . ..    BICS     r2,r2,r3
        0x00008f60:    e5c12000    . ..    STRB     r2,[r1,#0]
        0x00008f64:    0a000000    ....    BEQ      0x8f6c
        0x00008f68:    ea000005    ....    B        0x8f84
        0x00008f6c:    e5d01001    ....    LDRB     r1,[r0,#1]
        0x00008f70:    e51f22a0    ."..    LDR      r2,0x8cd8
        0x00008f74:    e5922000    . ..    LDR      r2,[r2,#0]
        0x00008f78:    e5d22031    1 ..    LDRB     r2,[r2,#0x31]
        0x00008f7c:    e1c11002    ....    BIC      r1,r1,r2
        0x00008f80:    e5c01001    ....    STRB     r1,[r0,#1]
        0x00008f84:    e3a01000    ....    MOV      r1,#0
        0x00008f88:    e51f22b8    ."..    LDR      r2,0x8cd8
        0x00008f8c:    e5922000    . ..    LDR      r2,[r2,#0]
        0x00008f90:    e5c2102c    ,...    STRB     r1,[r2,#0x2c]
        0x00008f94:    e3a01000    ....    MOV      r1,#0
        0x00008f98:    e51f22c8    ."..    LDR      r2,0x8cd8
        0x00008f9c:    e5922000    . ..    LDR      r2,[r2,#0]
        0x00008fa0:    e582101c    ....    STR      r1,[r2,#0x1c]
        0x00008fa4:    e1a0f00e    ....    MOV      pc,r14
    OS_EventWaitListInit
        0x00008fa8:    e3a02000    . ..    MOV      r2,#0
        0x00008fac:    e5c02001    . ..    STRB     r2,[r0,#1]
        0x00008fb0:    e2801008    ....    ADD      r1,r0,#8
        0x00008fb4:    e3a02000    . ..    MOV      r2,#0
        0x00008fb8:    e4c12001    . ..    STRB     r2,[r1],#1
        0x00008fbc:    e3a02000    . ..    MOV      r2,#0
        0x00008fc0:    e4c12001    . ..    STRB     r2,[r1],#1
        0x00008fc4:    e1a0f00e    ....    MOV      pc,r14
    OSMboxAccept
        0x00008fc8:    e92d4038    8@-.    STMFD    r13!,{r3-r5,r14}
        0x00008fcc:    e1a04000    .@..    MOV      r4,r0
        0x00008fd0:    e3540000    ..T.    CMP      r4,#0
        0x00008fd4:    1a000001    ....    BNE      0x8fe0
        0x00008fd8:    e3a00000    ....    MOV      r0,#0
        0x00008fdc:    e8bd8038    8...    LDMFD    r13!,{r3-r5,pc}
        0x00008fe0:    e5d40000    ....    LDRB     r0,[r4,#0]
        0x00008fe4:    e3500001    ..P.    CMP      r0,#1
        0x00008fe8:    0a000001    ....    BEQ      0x8ff4
        0x00008fec:    e3a00000    ....    MOV      r0,#0
        0x00008ff0:    eafffff9    ....    B        0x8fdc
        0x00008ff4:    eb000d97    ....    BL       ARMDisableInt  ; 0xc658
        0x00008ff8:    e5945004    .P..    LDR      r5,[r4,#4]
        0x00008ffc:    e3a00000    ....    MOV      r0,#0
        0x00009000:    e5840004    ....    STR      r0,[r4,#4]
        0x00009004:    eb000d98    ....    BL       ARMEnableInt  ; 0xc66c
        0x00009008:    e1a00005    ....    MOV      r0,r5
        0x0000900c:    eafffff2    ....    B        0x8fdc
    OSMboxCreate
        0x00009010:    e92d4038    8@-.    STMFD    r13!,{r3-r5,r14}
        0x00009014:    e1a05000    .P..    MOV      r5,r0
        0x00009018:    e51f039c    ....    LDR      r0,0x8c84
        0x0000901c:    e5d00000    ....    LDRB     r0,[r0,#0]
        0x00009020:    e3500000    ..P.    CMP      r0,#0
        0x00009024:    0a000001    ....    BEQ      0x9030
        0x00009028:    e3a00000    ....    MOV      r0,#0
        0x0000902c:    e8bd8038    8...    LDMFD    r13!,{r3-r5,pc}
        0x00009030:    eb000d88    ....    BL       ARMDisableInt  ; 0xc658
        0x00009034:    e51f0350    P...    LDR      r0,0x8cec
        0x00009038:    e5904000    .@..    LDR      r4,[r0,#0]
        0x0000903c:    e51f0358    X...    LDR      r0,0x8cec
        0x00009040:    e5900000    ....    LDR      r0,[r0,#0]
        0x00009044:    e3500000    ..P.    CMP      r0,#0
        0x00009048:    0a000004    ....    BEQ      0x9060
        0x0000904c:    e51f0368    h...    LDR      r0,0x8cec
        0x00009050:    e5900000    ....    LDR      r0,[r0,#0]
        0x00009054:    e5900004    ....    LDR      r0,[r0,#4]
        0x00009058:    e51f1374    t...    LDR      r1,0x8cec
        0x0000905c:    e5810000    ....    STR      r0,[r1,#0]
        0x00009060:    eb000d81    ....    BL       ARMEnableInt  ; 0xc66c
        0x00009064:    e3540000    ..T.    CMP      r4,#0
        0x00009068:    0a000004    ....    BEQ      0x9080
        0x0000906c:    e3a00001    ....    MOV      r0,#1
        0x00009070:    e5c40000    ....    STRB     r0,[r4,#0]
        0x00009074:    e5845004    .P..    STR      r5,[r4,#4]
        0x00009078:    e1a00004    ....    MOV      r0,r4
        0x0000907c:    ebffffc9    ....    BL       OS_EventWaitListInit  ; 0x8fa8
        0x00009080:    e1a00004    ....    MOV      r0,r4
        0x00009084:    eaffffe8    ....    B        0x902c
    OSMboxDel
        0x00009088:    e92d40f8    .@-.    STMFD    r13!,{r3-r7,r14}
        0x0000908c:    e1a04000    .@..    MOV      r4,r0
        0x00009090:    e1a07001    .p..    MOV      r7,r1
        0x00009094:    e1a05002    .P..    MOV      r5,r2
        0x00009098:    e51f041c    ....    LDR      r0,0x8c84
        0x0000909c:    e5d00000    ....    LDRB     r0,[r0,#0]
        0x000090a0:    e3500000    ..P.    CMP      r0,#0
        0x000090a4:    0a000003    ....    BEQ      0x90b8
        0x000090a8:    e3a0008c    ....    MOV      r0,#0x8c
        0x000090ac:    e5c50000    ....    STRB     r0,[r5,#0]
        0x000090b0:    e1a00004    ....    MOV      r0,r4
        0x000090b4:    e8bd80f8    ....    LDMFD    r13!,{r3-r7,pc}
        0x000090b8:    e3540000    ..T.    CMP      r4,#0
        0x000090bc:    1a000003    ....    BNE      0x90d0
        0x000090c0:    e3a00004    ....    MOV      r0,#4
        0x000090c4:    e5c50000    ....    STRB     r0,[r5,#0]
        0x000090c8:    e1a00004    ....    MOV      r0,r4
        0x000090cc:    eafffff8    ....    B        0x90b4
        0x000090d0:    e5d40000    ....    LDRB     r0,[r4,#0]
        0x000090d4:    e3500001    ..P.    CMP      r0,#1
        0x000090d8:    0a000003    ....    BEQ      0x90ec
        0x000090dc:    e3a00001    ....    MOV      r0,#1
        0x000090e0:    e5c50000    ....    STRB     r0,[r5,#0]
        0x000090e4:    e1a00004    ....    MOV      r0,r4
        0x000090e8:    eafffff1    ....    B        0x90b4
        0x000090ec:    eb000d59    Y...    BL       ARMDisableInt  ; 0xc658
        0x000090f0:    e5d40001    ....    LDRB     r0,[r4,#1]
        0x000090f4:    e3500000    ..P.    CMP      r0,#0
        0x000090f8:    0a000001    ....    BEQ      0x9104
        0x000090fc:    e3a06001    .`..    MOV      r6,#1
        0x00009100:    ea000000    ....    B        0x9108
        0x00009104:    e3a06000    .`..    MOV      r6,#0
        0x00009108:    e3570000    ..W.    CMP      r7,#0
        0x0000910c:    0a000002    ....    BEQ      0x911c
        0x00009110:    e3570001    ..W.    CMP      r7,#1
        0x00009114:    1a00002b    +...    BNE      0x91c8
        0x00009118:    ea000012    ....    B        0x9168
        0x0000911c:    e3560000    ..V.    CMP      r6,#0
        0x00009120:    1a00000b    ....    BNE      0x9154
        0x00009124:    e3a00000    ....    MOV      r0,#0
        0x00009128:    e5c40000    ....    STRB     r0,[r4,#0]
        0x0000912c:    e51f0448    H...    LDR      r0,0x8cec
        0x00009130:    e5900000    ....    LDR      r0,[r0,#0]
        0x00009134:    e5840004    ....    STR      r0,[r4,#4]
        0x00009138:    e51f0454    T...    LDR      r0,0x8cec
        0x0000913c:    e5804000    .@..    STR      r4,[r0,#0]
        0x00009140:    eb000d49    I...    BL       ARMEnableInt  ; 0xc66c
        0x00009144:    e3a00000    ....    MOV      r0,#0
        0x00009148:    e5c50000    ....    STRB     r0,[r5,#0]
        0x0000914c:    e3a00000    ....    MOV      r0,#0
        0x00009150:    eaffffd7    ....    B        0x90b4
        0x00009154:    eb000d44    D...    BL       ARMEnableInt  ; 0xc66c
        0x00009158:    e3a00008    ....    MOV      r0,#8
        0x0000915c:    e5c50000    ....    STRB     r0,[r5,#0]
        0x00009160:    e1a00004    ....    MOV      r0,r4
        0x00009164:    eaffffd2    ....    B        0x90b4
        0x00009168:    e1a00000    ....    NOP      
        0x0000916c:    e5d40001    ....    LDRB     r0,[r4,#1]
        0x00009170:    e3500000    ..P.    CMP      r0,#0
        0x00009174:    0a000004    ....    BEQ      0x918c
        0x00009178:    e3a02002    . ..    MOV      r2,#2
        0x0000917c:    e3a01000    ....    MOV      r1,#0
        0x00009180:    e1a00004    ....    MOV      r0,r4
        0x00009184:    ebffff11    ....    BL       OS_EventTaskRdy  ; 0x8dd0
        0x00009188:    eafffff7    ....    B        0x916c
        0x0000918c:    e3a00000    ....    MOV      r0,#0
        0x00009190:    e5c40000    ....    STRB     r0,[r4,#0]
        0x00009194:    e51f04b0    ....    LDR      r0,0x8cec
        0x00009198:    e5900000    ....    LDR      r0,[r0,#0]
        0x0000919c:    e5840004    ....    STR      r0,[r4,#4]
        0x000091a0:    e51f04bc    ....    LDR      r0,0x8cec
        0x000091a4:    e5804000    .@..    STR      r4,[r0,#0]
        0x000091a8:    eb000d2f    /...    BL       ARMEnableInt  ; 0xc66c
        0x000091ac:    e3560001    ..V.    CMP      r6,#1
        0x000091b0:    1a000000    ....    BNE      0x91b8
        0x000091b4:    ebfffcb0    ....    BL       OS_Sched  ; 0x847c
        0x000091b8:    e3a00000    ....    MOV      r0,#0
        0x000091bc:    e5c50000    ....    STRB     r0,[r5,#0]
        0x000091c0:    e3a00000    ....    MOV      r0,#0
        0x000091c4:    eaffffba    ....    B        0x90b4
        0x000091c8:    eb000d27    '...    BL       ARMEnableInt  ; 0xc66c
        0x000091cc:    e3a00007    ....    MOV      r0,#7
        0x000091d0:    e5c50000    ....    STRB     r0,[r5,#0]
        0x000091d4:    e1a00004    ....    MOV      r0,r4
        0x000091d8:    eaffffb5    ....    B        0x90b4
    OSMboxPend
        0x000091dc:    e92d40f8    .@-.    STMFD    r13!,{r3-r7,r14}
        0x000091e0:    e1a05000    .P..    MOV      r5,r0
        0x000091e4:    e1a07001    .p..    MOV      r7,r1
        0x000091e8:    e1a04002    .@..    MOV      r4,r2
        0x000091ec:    e51f0570    p...    LDR      r0,0x8c84
        0x000091f0:    e5d00000    ....    LDRB     r0,[r0,#0]
        0x000091f4:    e3500000    ..P.    CMP      r0,#0
        0x000091f8:    0a000003    ....    BEQ      0x920c
        0x000091fc:    e3a00002    ....    MOV      r0,#2
        0x00009200:    e5c40000    ....    STRB     r0,[r4,#0]
        0x00009204:    e3a00000    ....    MOV      r0,#0
        0x00009208:    e8bd80f8    ....    LDMFD    r13!,{r3-r7,pc}
        0x0000920c:    e3550000    ..U.    CMP      r5,#0
        0x00009210:    1a000003    ....    BNE      0x9224
        0x00009214:    e3a00004    ....    MOV      r0,#4
        0x00009218:    e5c40000    ....    STRB     r0,[r4,#0]
        0x0000921c:    e3a00000    ....    MOV      r0,#0
        0x00009220:    eafffff8    ....    B        0x9208
        0x00009224:    e5d50000    ....    LDRB     r0,[r5,#0]
        0x00009228:    e3500001    ..P.    CMP      r0,#1
        0x0000922c:    0a000003    ....    BEQ      0x9240
        0x00009230:    e3a00001    ....    MOV      r0,#1
        0x00009234:    e5c40000    ....    STRB     r0,[r4,#0]
        0x00009238:    e3a00000    ....    MOV      r0,#0
        0x0000923c:    eafffff1    ....    B        0x9208
        0x00009240:    eb000d04    ....    BL       ARMDisableInt  ; 0xc658
        0x00009244:    e5956004    .`..    LDR      r6,[r5,#4]
        0x00009248:    e3560000    ..V.    CMP      r6,#0
        0x0000924c:    0a000006    ....    BEQ      0x926c
        0x00009250:    e3a00000    ....    MOV      r0,#0
        0x00009254:    e5850004    ....    STR      r0,[r5,#4]
        0x00009258:    eb000d03    ....    BL       ARMEnableInt  ; 0xc66c
        0x0000925c:    e3a00000    ....    MOV      r0,#0
        0x00009260:    e5c40000    ....    STRB     r0,[r4,#0]
        0x00009264:    e1a00006    ....    MOV      r0,r6
        0x00009268:    eaffffe6    ....    B        0x9208
        0x0000926c:    e51f059c    ....    LDR      r0,0x8cd8
        0x00009270:    e5900000    ....    LDR      r0,[r0,#0]
        0x00009274:    e5d0002c    ,...    LDRB     r0,[r0,#0x2c]
        0x00009278:    e3800002    ....    ORR      r0,r0,#2
        0x0000927c:    e51f15ac    ....    LDR      r1,0x8cd8
        0x00009280:    e5911000    ....    LDR      r1,[r1,#0]
        0x00009284:    e5c1002c    ,...    STRB     r0,[r1,#0x2c]
        0x00009288:    e51f05b8    ....    LDR      r0,0x8cd8
        0x0000928c:    e5900000    ....    LDR      r0,[r0,#0]
        0x00009290:    e1c072ba    .r..    STRH     r7,[r0,#0x2a]
        0x00009294:    e1a00005    ....    MOV      r0,r5
        0x00009298:    ebfffefc    ....    BL       OS_EventTaskWait  ; 0x8e90
        0x0000929c:    eb000cf2    ....    BL       ARMEnableInt  ; 0xc66c
        0x000092a0:    ebfffc75    u...    BL       OS_Sched  ; 0x847c
        0x000092a4:    eb000ceb    ....    BL       ARMDisableInt  ; 0xc658
        0x000092a8:    e51f05d8    ....    LDR      r0,0x8cd8
        0x000092ac:    e5900000    ....    LDR      r0,[r0,#0]
        0x000092b0:    e5906020     `..    LDR      r6,[r0,#0x20]
        0x000092b4:    e3560000    ..V.    CMP      r6,#0
        0x000092b8:    0a000010    ....    BEQ      0x9300
        0x000092bc:    e3a00000    ....    MOV      r0,#0
        0x000092c0:    e51f15f0    ....    LDR      r1,0x8cd8
        0x000092c4:    e5911000    ....    LDR      r1,[r1,#0]
        0x000092c8:    e5810020     ...    STR      r0,[r1,#0x20]
        0x000092cc:    e3a00000    ....    MOV      r0,#0
        0x000092d0:    e51f1600    ....    LDR      r1,0x8cd8
        0x000092d4:    e5911000    ....    LDR      r1,[r1,#0]
        0x000092d8:    e5c1002c    ,...    STRB     r0,[r1,#0x2c]
        0x000092dc:    e3a00000    ....    MOV      r0,#0
        0x000092e0:    e51f1610    ....    LDR      r1,0x8cd8
        0x000092e4:    e5911000    ....    LDR      r1,[r1,#0]
        0x000092e8:    e581001c    ....    STR      r0,[r1,#0x1c]
        0x000092ec:    eb000cde    ....    BL       ARMEnableInt  ; 0xc66c
        0x000092f0:    e3a00000    ....    MOV      r0,#0
        0x000092f4:    e5c40000    ....    STRB     r0,[r4,#0]
        0x000092f8:    e1a00006    ....    MOV      r0,r6
        0x000092fc:    eaffffc1    ....    B        0x9208
        0x00009300:    e1a00005    ....    MOV      r0,r5
        0x00009304:    ebffff0b    ....    BL       OS_EventTO  ; 0x8f38
        0x00009308:    eb000cd7    ....    BL       ARMEnableInt  ; 0xc66c
        0x0000930c:    e3a0000a    ....    MOV      r0,#0xa
        0x00009310:    e5c40000    ....    STRB     r0,[r4,#0]
        0x00009314:    e3a00000    ....    MOV      r0,#0
        0x00009318:    eaffffba    ....    B        0x9208
    OSMboxPost
        0x0000931c:    e92d4038    8@-.    STMFD    r13!,{r3-r5,r14}
        0x00009320:    e1a04000    .@..    MOV      r4,r0
        0x00009324:    e1a05001    .P..    MOV      r5,r1
        0x00009328:    e3540000    ..T.    CMP      r4,#0
        0x0000932c:    1a000001    ....    BNE      0x9338
        0x00009330:    e3a00004    ....    MOV      r0,#4
        0x00009334:    e8bd8038    8...    LDMFD    r13!,{r3-r5,pc}
        0x00009338:    e3550000    ..U.    CMP      r5,#0
        0x0000933c:    1a000001    ....    BNE      0x9348
        0x00009340:    e3a00003    ....    MOV      r0,#3
        0x00009344:    eafffffa    ....    B        0x9334
        0x00009348:    e5d40000    ....    LDRB     r0,[r4,#0]
        0x0000934c:    e3500001    ..P.    CMP      r0,#1
        0x00009350:    0a000001    ....    BEQ      0x935c
        0x00009354:    e3a00001    ....    MOV      r0,#1
        0x00009358:    eafffff5    ....    B        0x9334
        0x0000935c:    eb000cbd    ....    BL       ARMDisableInt  ; 0xc658
        0x00009360:    e5d40001    ....    LDRB     r0,[r4,#1]
        0x00009364:    e3500000    ..P.    CMP      r0,#0
        0x00009368:    0a000007    ....    BEQ      0x938c
        0x0000936c:    e3a02002    . ..    MOV      r2,#2
        0x00009370:    e1a01005    ....    MOV      r1,r5
        0x00009374:    e1a00004    ....    MOV      r0,r4
        0x00009378:    ebfffe94    ....    BL       OS_EventTaskRdy  ; 0x8dd0
        0x0000937c:    eb000cba    ....    BL       ARMEnableInt  ; 0xc66c
        0x00009380:    ebfffc3d    =...    BL       OS_Sched  ; 0x847c
        0x00009384:    e3a00000    ....    MOV      r0,#0
        0x00009388:    eaffffe9    ....    B        0x9334
        0x0000938c:    e5940004    ....    LDR      r0,[r4,#4]
        0x00009390:    e3500000    ..P.    CMP      r0,#0
        0x00009394:    0a000002    ....    BEQ      0x93a4
        0x00009398:    eb000cb3    ....    BL       ARMEnableInt  ; 0xc66c
        0x0000939c:    e3a00014    ....    MOV      r0,#0x14
        0x000093a0:    eaffffe3    ....    B        0x9334
        0x000093a4:    e5845004    .P..    STR      r5,[r4,#4]
        0x000093a8:    eb000caf    ....    BL       ARMEnableInt  ; 0xc66c
        0x000093ac:    e3a00000    ....    MOV      r0,#0
        0x000093b0:    eaffffdf    ....    B        0x9334
    OSMboxPostOpt
        0x000093b4:    e92d4070    p@-.    STMFD    r13!,{r4-r6,r14}
        0x000093b8:    e1a04000    .@..    MOV      r4,r0
        0x000093bc:    e1a05001    .P..    MOV      r5,r1
        0x000093c0:    e1a06002    .`..    MOV      r6,r2
        0x000093c4:    e3540000    ..T.    CMP      r4,#0
        0x000093c8:    1a000001    ....    BNE      0x93d4
        0x000093cc:    e3a00004    ....    MOV      r0,#4
        0x000093d0:    e8bd8070    p...    LDMFD    r13!,{r4-r6,pc}
        0x000093d4:    e3550000    ..U.    CMP      r5,#0
        0x000093d8:    1a000001    ....    BNE      0x93e4
        0x000093dc:    e3a00003    ....    MOV      r0,#3
        0x000093e0:    eafffffa    ....    B        0x93d0
        0x000093e4:    e5d40000    ....    LDRB     r0,[r4,#0]
        0x000093e8:    e3500001    ..P.    CMP      r0,#1
        0x000093ec:    0a000001    ....    BEQ      0x93f8
        0x000093f0:    e3a00001    ....    MOV      r0,#1
        0x000093f4:    eafffff5    ....    B        0x93d0
        0x000093f8:    eb000c96    ....    BL       ARMDisableInt  ; 0xc658
        0x000093fc:    e5d40001    ....    LDRB     r0,[r4,#1]
        0x00009400:    e3500000    ..P.    CMP      r0,#0
        0x00009404:    0a000012    ....    BEQ      0x9454
        0x00009408:    e3160001    ....    TST      r6,#1
        0x0000940c:    0a000008    ....    BEQ      0x9434
        0x00009410:    e1a00000    ....    NOP      
        0x00009414:    e5d40001    ....    LDRB     r0,[r4,#1]
        0x00009418:    e3500000    ..P.    CMP      r0,#0
        0x0000941c:    0a000008    ....    BEQ      0x9444
        0x00009420:    e3a02002    . ..    MOV      r2,#2
        0x00009424:    e1a01005    ....    MOV      r1,r5
        0x00009428:    e1a00004    ....    MOV      r0,r4
        0x0000942c:    ebfffe67    g...    BL       OS_EventTaskRdy  ; 0x8dd0
        0x00009430:    eafffff7    ....    B        0x9414
        0x00009434:    e3a02002    . ..    MOV      r2,#2
        0x00009438:    e1a01005    ....    MOV      r1,r5
        0x0000943c:    e1a00004    ....    MOV      r0,r4
        0x00009440:    ebfffe62    b...    BL       OS_EventTaskRdy  ; 0x8dd0
        0x00009444:    eb000c88    ....    BL       ARMEnableInt  ; 0xc66c
        0x00009448:    ebfffc0b    ....    BL       OS_Sched  ; 0x847c
        0x0000944c:    e3a00000    ....    MOV      r0,#0
        0x00009450:    eaffffde    ....    B        0x93d0
        0x00009454:    e5940004    ....    LDR      r0,[r4,#4]
        0x00009458:    e3500000    ..P.    CMP      r0,#0
        0x0000945c:    0a000002    ....    BEQ      0x946c
        0x00009460:    eb000c81    ....    BL       ARMEnableInt  ; 0xc66c
        0x00009464:    e3a00014    ....    MOV      r0,#0x14
        0x00009468:    eaffffd8    ....    B        0x93d0
        0x0000946c:    e5845004    .P..    STR      r5,[r4,#4]
        0x00009470:    eb000c7d    }...    BL       ARMEnableInt  ; 0xc66c
        0x00009474:    e3a00000    ....    MOV      r0,#0
        0x00009478:    eaffffd4    ....    B        0x93d0
    OSMboxQuery
        0x0000947c:    e92d40f8    .@-.    STMFD    r13!,{r3-r7,r14}
        0x00009480:    e1a04000    .@..    MOV      r4,r0
        0x00009484:    e1a07001    .p..    MOV      r7,r1
        0x00009488:    e3540000    ..T.    CMP      r4,#0
        0x0000948c:    1a000001    ....    BNE      0x9498
        0x00009490:    e3a00004    ....    MOV      r0,#4
        0x00009494:    e8bd80f8    ....    LDMFD    r13!,{r3-r7,pc}
        0x00009498:    e5d40000    ....    LDRB     r0,[r4,#0]
        0x0000949c:    e3500001    ..P.    CMP      r0,#1
        0x000094a0:    0a000001    ....    BEQ      0x94ac
        0x000094a4:    e3a00001    ....    MOV      r0,#1
        0x000094a8:    eafffff9    ....    B        0x9494
        0x000094ac:    eb000c69    i...    BL       ARMDisableInt  ; 0xc658
        0x000094b0:    e5d40001    ....    LDRB     r0,[r4,#1]
        0x000094b4:    e5c70006    ....    STRB     r0,[r7,#6]
        0x000094b8:    e2845008    .P..    ADD      r5,r4,#8
        0x000094bc:    e2876004    .`..    ADD      r6,r7,#4
        0x000094c0:    e4d51001    ....    LDRB     r1,[r5],#1
        0x000094c4:    e4c61001    ....    STRB     r1,[r6],#1
        0x000094c8:    e4d51001    ....    LDRB     r1,[r5],#1
        0x000094cc:    e4c61001    ....    STRB     r1,[r6],#1
        0x000094d0:    e5940004    ....    LDR      r0,[r4,#4]
        0x000094d4:    e5870000    ....    STR      r0,[r7,#0]
        0x000094d8:    eb000c63    c...    BL       ARMEnableInt  ; 0xc66c
        0x000094dc:    e3a00000    ....    MOV      r0,#0
        0x000094e0:    eaffffeb    ....    B        0x9494
    OSMemCreate
        0x000094e4:    e92d4ff8    .O-.    STMFD    r13!,{r3-r11,r14}
        0x000094e8:    e1a05000    .P..    MOV      r5,r0
        0x000094ec:    e1a07001    .p..    MOV      r7,r1
        0x000094f0:    e1a08002    ....    MOV      r8,r2
        0x000094f4:    e1a06003    .`..    MOV      r6,r3
        0x000094f8:    e3550000    ..U.    CMP      r5,#0
        0x000094fc:    1a000003    ....    BNE      0x9510
        0x00009500:    e3a00076    v...    MOV      r0,#0x76
        0x00009504:    e5c60000    ....    STRB     r0,[r6,#0]
        0x00009508:    e3a00000    ....    MOV      r0,#0
        0x0000950c:    e8bd8ff8    ....    LDMFD    r13!,{r3-r11,pc}
        0x00009510:    e3570002    ..W.    CMP      r7,#2
        0x00009514:    2a000003    ...*    BCS      0x9528
        0x00009518:    e3a0006f    o...    MOV      r0,#0x6f
        0x0000951c:    e5c60000    ....    STRB     r0,[r6,#0]
        0x00009520:    e3a00000    ....    MOV      r0,#0
        0x00009524:    eafffff8    ....    B        0x950c
        0x00009528:    e3580004    ..X.    CMP      r8,#4
        0x0000952c:    2a000003    ...*    BCS      0x9540
        0x00009530:    e3a00070    p...    MOV      r0,#0x70
        0x00009534:    e5c60000    ....    STRB     r0,[r6,#0]
        0x00009538:    e3a00000    ....    MOV      r0,#0
        0x0000953c:    eafffff2    ....    B        0x950c
        0x00009540:    eb000c44    D...    BL       ARMDisableInt  ; 0xc658
        0x00009544:    e51f0888    ....    LDR      r0,0x8cc4
        0x00009548:    e5904000    .@..    LDR      r4,[r0,#0]
        0x0000954c:    e51f0890    ....    LDR      r0,0x8cc4
        0x00009550:    e5900000    ....    LDR      r0,[r0,#0]
        0x00009554:    e3500000    ..P.    CMP      r0,#0
        0x00009558:    0a000004    ....    BEQ      0x9570
        0x0000955c:    e51f08a0    ....    LDR      r0,0x8cc4
        0x00009560:    e5900000    ....    LDR      r0,[r0,#0]
        0x00009564:    e5900004    ....    LDR      r0,[r0,#4]
        0x00009568:    e51f18ac    ....    LDR      r1,0x8cc4
        0x0000956c:    e5810000    ....    STR      r0,[r1,#0]
        0x00009570:    eb000c3d    =...    BL       ARMEnableInt  ; 0xc66c
        0x00009574:    e3540000    ..T.    CMP      r4,#0
        0x00009578:    1a000003    ....    BNE      0x958c
        0x0000957c:    e3a0006e    n...    MOV      r0,#0x6e
        0x00009580:    e5c60000    ....    STRB     r0,[r6,#0]
        0x00009584:    e3a00000    ....    MOV      r0,#0
        0x00009588:    eaffffdf    ....    B        0x950c
        0x0000958c:    e1a0a005    ....    MOV      r10,r5
        0x00009590:    e0859008    ....    ADD      r9,r5,r8
        0x00009594:    e3a0b000    ....    MOV      r11,#0
        0x00009598:    e2470001    ..G.    SUB      r0,r7,#1
        0x0000959c:    e15b0000    ..[.    CMP      r11,r0
        0x000095a0:    2a000006    ...*    BCS      0x95c0
        0x000095a4:    ea000001    ....    B        0x95b0
        0x000095a8:    e28bb001    ....    ADD      r11,r11,#1
        0x000095ac:    eafffff9    ....    B        0x9598
        0x000095b0:    e58a9000    ....    STR      r9,[r10,#0]
        0x000095b4:    e1a0a009    ....    MOV      r10,r9
        0x000095b8:    e0899008    ....    ADD      r9,r9,r8
        0x000095bc:    eafffff9    ....    B        0x95a8
        0x000095c0:    e3a00000    ....    MOV      r0,#0
        0x000095c4:    e58a0000    ....    STR      r0,[r10,#0]
        0x000095c8:    eb000c22    "...    BL       ARMDisableInt  ; 0xc658
        0x000095cc:    e5845000    .P..    STR      r5,[r4,#0]
        0x000095d0:    e5845004    .P..    STR      r5,[r4,#4]
        0x000095d4:    e5847010    .p..    STR      r7,[r4,#0x10]
        0x000095d8:    e584700c    .p..    STR      r7,[r4,#0xc]
        0x000095dc:    e5848008    ....    STR      r8,[r4,#8]
        0x000095e0:    eb000c21    !...    BL       ARMEnableInt  ; 0xc66c
        0x000095e4:    e3a00000    ....    MOV      r0,#0
        0x000095e8:    e5c60000    ....    STRB     r0,[r6,#0]
        0x000095ec:    e1a00004    ....    MOV      r0,r4
        0x000095f0:    eaffffc5    ....    B        0x950c
    OSMemGet
        0x000095f4:    e92d4070    p@-.    STMFD    r13!,{r4-r6,r14}
        0x000095f8:    e1a04000    .@..    MOV      r4,r0
        0x000095fc:    e1a05001    .P..    MOV      r5,r1
        0x00009600:    e3540000    ..T.    CMP      r4,#0
        0x00009604:    1a000003    ....    BNE      0x9618
        0x00009608:    e3a00074    t...    MOV      r0,#0x74
        0x0000960c:    e5c50000    ....    STRB     r0,[r5,#0]
        0x00009610:    e3a00000    ....    MOV      r0,#0
        0x00009614:    e8bd8070    p...    LDMFD    r13!,{r4-r6,pc}
        0x00009618:    eb000c0e    ....    BL       ARMDisableInt  ; 0xc658
        0x0000961c:    e5940010    ....    LDR      r0,[r4,#0x10]
        0x00009620:    e3500000    ..P.    CMP      r0,#0
        0x00009624:    0a00000a    ....    BEQ      0x9654
        0x00009628:    e5946004    .`..    LDR      r6,[r4,#4]
        0x0000962c:    e5960000    ....    LDR      r0,[r6,#0]
        0x00009630:    e5840004    ....    STR      r0,[r4,#4]
        0x00009634:    e5940010    ....    LDR      r0,[r4,#0x10]
        0x00009638:    e2400001    ..@.    SUB      r0,r0,#1
        0x0000963c:    e5840010    ....    STR      r0,[r4,#0x10]
        0x00009640:    eb000c09    ....    BL       ARMEnableInt  ; 0xc66c
        0x00009644:    e3a00000    ....    MOV      r0,#0
        0x00009648:    e5c50000    ....    STRB     r0,[r5,#0]
        0x0000964c:    e1a00006    ....    MOV      r0,r6
        0x00009650:    eaffffef    ....    B        0x9614
        0x00009654:    eb000c04    ....    BL       ARMEnableInt  ; 0xc66c
        0x00009658:    e3a00071    q...    MOV      r0,#0x71
        0x0000965c:    e5c50000    ....    STRB     r0,[r5,#0]
        0x00009660:    e3a00000    ....    MOV      r0,#0
        0x00009664:    eaffffea    ....    B        0x9614
    OSMemPut
        0x00009668:    e92d4038    8@-.    STMFD    r13!,{r3-r5,r14}
        0x0000966c:    e1a04000    .@..    MOV      r4,r0
        0x00009670:    e1a05001    .P..    MOV      r5,r1
        0x00009674:    e3540000    ..T.    CMP      r4,#0
        0x00009678:    1a000001    ....    BNE      0x9684
        0x0000967c:    e3a00074    t...    MOV      r0,#0x74
        0x00009680:    e8bd8038    8...    LDMFD    r13!,{r3-r5,pc}
        0x00009684:    e3550000    ..U.    CMP      r5,#0
        0x00009688:    1a000001    ....    BNE      0x9694
        0x0000968c:    e3a00073    s...    MOV      r0,#0x73
        0x00009690:    eafffffa    ....    B        0x9680
        0x00009694:    eb000bef    ....    BL       ARMDisableInt  ; 0xc658
        0x00009698:    e5940010    ....    LDR      r0,[r4,#0x10]
        0x0000969c:    e594100c    ....    LDR      r1,[r4,#0xc]
        0x000096a0:    e1500001    ..P.    CMP      r0,r1
        0x000096a4:    3a000002    ...:    BCC      0x96b4
        0x000096a8:    eb000bef    ....    BL       ARMEnableInt  ; 0xc66c
        0x000096ac:    e3a00072    r...    MOV      r0,#0x72
        0x000096b0:    eafffff2    ....    B        0x9680
        0x000096b4:    e5940004    ....    LDR      r0,[r4,#4]
        0x000096b8:    e5850000    ....    STR      r0,[r5,#0]
        0x000096bc:    e5845004    .P..    STR      r5,[r4,#4]
        0x000096c0:    e5940010    ....    LDR      r0,[r4,#0x10]
        0x000096c4:    e2800001    ....    ADD      r0,r0,#1
        0x000096c8:    e5840010    ....    STR      r0,[r4,#0x10]
        0x000096cc:    eb000be6    ....    BL       ARMEnableInt  ; 0xc66c
        0x000096d0:    e3a00000    ....    MOV      r0,#0
        0x000096d4:    eaffffe9    ....    B        0x9680
    OSMemQuery
        0x000096d8:    e92d4038    8@-.    STMFD    r13!,{r3-r5,r14}
        0x000096dc:    e1a05000    .P..    MOV      r5,r0
        0x000096e0:    e1a04001    .@..    MOV      r4,r1
        0x000096e4:    e3550000    ..U.    CMP      r5,#0
        0x000096e8:    1a000001    ....    BNE      0x96f4
        0x000096ec:    e3a00074    t...    MOV      r0,#0x74
        0x000096f0:    e8bd8038    8...    LDMFD    r13!,{r3-r5,pc}
        0x000096f4:    e3540000    ..T.    CMP      r4,#0
        0x000096f8:    1a000001    ....    BNE      0x9704
        0x000096fc:    e3a00075    u...    MOV      r0,#0x75
        0x00009700:    eafffffa    ....    B        0x96f0
        0x00009704:    eb000bd3    ....    BL       ARMDisableInt  ; 0xc658
        0x00009708:    e5950000    ....    LDR      r0,[r5,#0]
        0x0000970c:    e5840000    ....    STR      r0,[r4,#0]
        0x00009710:    e5950004    ....    LDR      r0,[r5,#4]
        0x00009714:    e5840004    ....    STR      r0,[r4,#4]
        0x00009718:    e5950008    ....    LDR      r0,[r5,#8]
        0x0000971c:    e5840008    ....    STR      r0,[r4,#8]
        0x00009720:    e595000c    ....    LDR      r0,[r5,#0xc]
        0x00009724:    e584000c    ....    STR      r0,[r4,#0xc]
        0x00009728:    e5950010    ....    LDR      r0,[r5,#0x10]
        0x0000972c:    e5840010    ....    STR      r0,[r4,#0x10]
        0x00009730:    eb000bcd    ....    BL       ARMEnableInt  ; 0xc66c
        0x00009734:    e284100c    ....    ADD      r1,r4,#0xc
        0x00009738:    e8910003    ....    LDMIA    r1,{r0,r1}
        0x0000973c:    e0400001    ..@.    SUB      r0,r0,r1
        0x00009740:    e5840014    ....    STR      r0,[r4,#0x14]
        0x00009744:    e3a00000    ....    MOV      r0,#0
        0x00009748:    eaffffe8    ....    B        0x96f0
    OSQAccept
        0x0000974c:    e92d4070    p@-.    STMFD    r13!,{r4-r6,r14}
        0x00009750:    e1a05000    .P..    MOV      r5,r0
        0x00009754:    e3550000    ..U.    CMP      r5,#0
        0x00009758:    1a000001    ....    BNE      0x9764
        0x0000975c:    e3a00000    ....    MOV      r0,#0
        0x00009760:    e8bd8070    p...    LDMFD    r13!,{r4-r6,pc}
        0x00009764:    e5d50000    ....    LDRB     r0,[r5,#0]
        0x00009768:    e3500002    ..P.    CMP      r0,#2
        0x0000976c:    0a000001    ....    BEQ      0x9778
        0x00009770:    e3a00000    ....    MOV      r0,#0
        0x00009774:    eafffff9    ....    B        0x9760
        0x00009778:    eb000bb6    ....    BL       ARMDisableInt  ; 0xc658
        0x0000977c:    e5954004    .@..    LDR      r4,[r5,#4]
        0x00009780:    e1d401b6    ....    LDRH     r0,[r4,#0x16]
        0x00009784:    e3500000    ..P.    CMP      r0,#0
        0x00009788:    0a00000e    ....    BEQ      0x97c8
        0x0000978c:    e5940010    ....    LDR      r0,[r4,#0x10]
        0x00009790:    e2800004    ....    ADD      r0,r0,#4
        0x00009794:    e5941010    ....    LDR      r1,[r4,#0x10]
        0x00009798:    e5840010    ....    STR      r0,[r4,#0x10]
        0x0000979c:    e5916000    .`..    LDR      r6,[r1,#0]
        0x000097a0:    e1d401b6    ....    LDRH     r0,[r4,#0x16]
        0x000097a4:    e2400001    ..@.    SUB      r0,r0,#1
        0x000097a8:    e1c401b6    ....    STRH     r0,[r4,#0x16]
        0x000097ac:    e5940010    ....    LDR      r0,[r4,#0x10]
        0x000097b0:    e5941008    ....    LDR      r1,[r4,#8]
        0x000097b4:    e1500001    ..P.    CMP      r0,r1
        0x000097b8:    1a000003    ....    BNE      0x97cc
        0x000097bc:    e5940004    ....    LDR      r0,[r4,#4]
        0x000097c0:    e5840010    ....    STR      r0,[r4,#0x10]
        0x000097c4:    ea000000    ....    B        0x97cc
        0x000097c8:    e3a06000    .`..    MOV      r6,#0
        0x000097cc:    eb000ba6    ....    BL       ARMEnableInt  ; 0xc66c
        0x000097d0:    e1a00006    ....    MOV      r0,r6
        0x000097d4:    eaffffe1    ....    B        0x9760
    OSQCreate
        0x000097d8:    e92d40f8    .@-.    STMFD    r13!,{r3-r7,r14}
        0x000097dc:    e1a06000    .`..    MOV      r6,r0
        0x000097e0:    e1a07001    .p..    MOV      r7,r1
        0x000097e4:    e51f0b68    h...    LDR      r0,0x8c84
        0x000097e8:    e5d00000    ....    LDRB     r0,[r0,#0]
        0x000097ec:    e3500000    ..P.    CMP      r0,#0
        0x000097f0:    0a000001    ....    BEQ      0x97fc
        0x000097f4:    e3a00000    ....    MOV      r0,#0
        0x000097f8:    e8bd80f8    ....    LDMFD    r13!,{r3-r7,pc}
        0x000097fc:    eb000b95    ....    BL       ARMDisableInt  ; 0xc658
        0x00009800:    e51f0b1c    ....    LDR      r0,0x8cec
        0x00009804:    e5905000    .P..    LDR      r5,[r0,#0]
        0x00009808:    e51f0b24    $...    LDR      r0,0x8cec
        0x0000980c:    e5900000    ....    LDR      r0,[r0,#0]
        0x00009810:    e3500000    ..P.    CMP      r0,#0
        0x00009814:    0a000004    ....    BEQ      0x982c
        0x00009818:    e51f0b34    4...    LDR      r0,0x8cec
        0x0000981c:    e5900000    ....    LDR      r0,[r0,#0]
        0x00009820:    e5900004    ....    LDR      r0,[r0,#4]
        0x00009824:    e51f1b40    @...    LDR      r1,0x8cec
        0x00009828:    e5810000    ....    STR      r0,[r1,#0]
        0x0000982c:    eb000b8e    ....    BL       ARMEnableInt  ; 0xc66c
        0x00009830:    e3550000    ..U.    CMP      r5,#0
        0x00009834:    0a000024    $...    BEQ      0x98cc
        0x00009838:    eb000b86    ....    BL       ARMDisableInt  ; 0xc658
        0x0000983c:    e51f0b74    t...    LDR      r0,0x8cd0
        0x00009840:    e5904000    .@..    LDR      r4,[r0,#0]
        0x00009844:    e51f0b7c    |...    LDR      r0,0x8cd0
        0x00009848:    e5900000    ....    LDR      r0,[r0,#0]
        0x0000984c:    e3500000    ..P.    CMP      r0,#0
        0x00009850:    0a000004    ....    BEQ      0x9868
        0x00009854:    e51f0b8c    ....    LDR      r0,0x8cd0
        0x00009858:    e5900000    ....    LDR      r0,[r0,#0]
        0x0000985c:    e5900000    ....    LDR      r0,[r0,#0]
        0x00009860:    e51f1b98    ....    LDR      r1,0x8cd0
        0x00009864:    e5810000    ....    STR      r0,[r1,#0]
        0x00009868:    eb000b7f    ....    BL       ARMEnableInt  ; 0xc66c
        0x0000986c:    e3540000    ..T.    CMP      r4,#0
        0x00009870:    0a00000d    ....    BEQ      0x98ac
        0x00009874:    e5846004    .`..    STR      r6,[r4,#4]
        0x00009878:    e0860107    ....    ADD      r0,r6,r7,LSL #2
        0x0000987c:    e5840008    ....    STR      r0,[r4,#8]
        0x00009880:    e584600c    .`..    STR      r6,[r4,#0xc]
        0x00009884:    e5846010    .`..    STR      r6,[r4,#0x10]
        0x00009888:    e1c471b4    .q..    STRH     r7,[r4,#0x14]
        0x0000988c:    e3a00000    ....    MOV      r0,#0
        0x00009890:    e1c401b6    ....    STRH     r0,[r4,#0x16]
        0x00009894:    e3a00002    ....    MOV      r0,#2
        0x00009898:    e5c50000    ....    STRB     r0,[r5,#0]
        0x0000989c:    e5854004    .@..    STR      r4,[r5,#4]
        0x000098a0:    e1a00005    ....    MOV      r0,r5
        0x000098a4:    ebfffdbf    ....    BL       OS_EventWaitListInit  ; 0x8fa8
        0x000098a8:    ea000007    ....    B        0x98cc
        0x000098ac:    eb000b69    i...    BL       ARMDisableInt  ; 0xc658
        0x000098b0:    e51f0bcc    ....    LDR      r0,0x8cec
        0x000098b4:    e5900000    ....    LDR      r0,[r0,#0]
        0x000098b8:    e5850004    ....    STR      r0,[r5,#4]
        0x000098bc:    e51f0bd8    ....    LDR      r0,0x8cec
        0x000098c0:    e5805000    .P..    STR      r5,[r0,#0]
        0x000098c4:    eb000b68    h...    BL       ARMEnableInt  ; 0xc66c
        0x000098c8:    e3a05000    .P..    MOV      r5,#0
        0x000098cc:    e1a00005    ....    MOV      r0,r5
        0x000098d0:    eaffffc8    ....    B        0x97f8
    OSQDel
        0x000098d4:    e92d41f0    .A-.    STMFD    r13!,{r4-r8,r14}
        0x000098d8:    e1a04000    .@..    MOV      r4,r0
        0x000098dc:    e1a08001    ....    MOV      r8,r1
        0x000098e0:    e1a05002    .P..    MOV      r5,r2
        0x000098e4:    e51f0c68    h...    LDR      r0,0x8c84
        0x000098e8:    e5d00000    ....    LDRB     r0,[r0,#0]
        0x000098ec:    e3500000    ..P.    CMP      r0,#0
        0x000098f0:    0a000003    ....    BEQ      0x9904
        0x000098f4:    e3a0008c    ....    MOV      r0,#0x8c
        0x000098f8:    e5c50000    ....    STRB     r0,[r5,#0]
        0x000098fc:    e3a00000    ....    MOV      r0,#0
        0x00009900:    e8bd81f0    ....    LDMFD    r13!,{r4-r8,pc}
        0x00009904:    e3540000    ..T.    CMP      r4,#0
        0x00009908:    1a000003    ....    BNE      0x991c
        0x0000990c:    e3a00004    ....    MOV      r0,#4
        0x00009910:    e5c50000    ....    STRB     r0,[r5,#0]
        0x00009914:    e1a00004    ....    MOV      r0,r4
        0x00009918:    eafffff8    ....    B        0x9900
        0x0000991c:    e5d40000    ....    LDRB     r0,[r4,#0]
        0x00009920:    e3500002    ..P.    CMP      r0,#2
        0x00009924:    0a000003    ....    BEQ      0x9938
        0x00009928:    e3a00001    ....    MOV      r0,#1
        0x0000992c:    e5c50000    ....    STRB     r0,[r5,#0]
        0x00009930:    e1a00004    ....    MOV      r0,r4
        0x00009934:    eafffff1    ....    B        0x9900
        0x00009938:    eb000b46    F...    BL       ARMDisableInt  ; 0xc658
        0x0000993c:    e5d40001    ....    LDRB     r0,[r4,#1]
        0x00009940:    e3500000    ..P.    CMP      r0,#0
        0x00009944:    0a000001    ....    BEQ      0x9950
        0x00009948:    e3a07001    .p..    MOV      r7,#1
        0x0000994c:    ea000000    ....    B        0x9954
        0x00009950:    e3a07000    .p..    MOV      r7,#0
        0x00009954:    e3580000    ..X.    CMP      r8,#0
        0x00009958:    0a000002    ....    BEQ      0x9968
        0x0000995c:    e3580001    ..X.    CMP      r8,#1
        0x00009960:    1a000037    7...    BNE      0x9a44
        0x00009964:    ea000018    ....    B        0x99cc
        0x00009968:    e3570000    ..W.    CMP      r7,#0
        0x0000996c:    1a000011    ....    BNE      0x99b8
        0x00009970:    e5946004    .`..    LDR      r6,[r4,#4]
        0x00009974:    e51f0cac    ....    LDR      r0,0x8cd0
        0x00009978:    e5900000    ....    LDR      r0,[r0,#0]
        0x0000997c:    e5860000    ....    STR      r0,[r6,#0]
        0x00009980:    e51f0cb8    ....    LDR      r0,0x8cd0
        0x00009984:    e5806000    .`..    STR      r6,[r0,#0]
        0x00009988:    e3a00000    ....    MOV      r0,#0
        0x0000998c:    e5c40000    ....    STRB     r0,[r4,#0]
        0x00009990:    e51f0cac    ....    LDR      r0,0x8cec
        0x00009994:    e5900000    ....    LDR      r0,[r0,#0]
        0x00009998:    e5840004    ....    STR      r0,[r4,#4]
        0x0000999c:    e51f0cb8    ....    LDR      r0,0x8cec
        0x000099a0:    e5804000    .@..    STR      r4,[r0,#0]
        0x000099a4:    eb000b30    0...    BL       ARMEnableInt  ; 0xc66c
        0x000099a8:    e3a00000    ....    MOV      r0,#0
        0x000099ac:    e5c50000    ....    STRB     r0,[r5,#0]
        0x000099b0:    e3a00000    ....    MOV      r0,#0
        0x000099b4:    eaffffd1    ....    B        0x9900
        0x000099b8:    eb000b2b    +...    BL       ARMEnableInt  ; 0xc66c
        0x000099bc:    e3a00008    ....    MOV      r0,#8
        0x000099c0:    e5c50000    ....    STRB     r0,[r5,#0]
        0x000099c4:    e1a00004    ....    MOV      r0,r4
        0x000099c8:    eaffffcc    ....    B        0x9900
        0x000099cc:    e1a00000    ....    NOP      
        0x000099d0:    e5d40001    ....    LDRB     r0,[r4,#1]
        0x000099d4:    e3500000    ..P.    CMP      r0,#0
        0x000099d8:    0a000004    ....    BEQ      0x99f0
        0x000099dc:    e3a02004    . ..    MOV      r2,#4
        0x000099e0:    e3a01000    ....    MOV      r1,#0
        0x000099e4:    e1a00004    ....    MOV      r0,r4
        0x000099e8:    ebfffcf8    ....    BL       OS_EventTaskRdy  ; 0x8dd0
        0x000099ec:    eafffff7    ....    B        0x99d0
        0x000099f0:    e5946004    .`..    LDR      r6,[r4,#4]
        0x000099f4:    e51f0d2c    ,...    LDR      r0,0x8cd0
        0x000099f8:    e5900000    ....    LDR      r0,[r0,#0]
        0x000099fc:    e5860000    ....    STR      r0,[r6,#0]
        0x00009a00:    e51f0d38    8...    LDR      r0,0x8cd0
        0x00009a04:    e5806000    .`..    STR      r6,[r0,#0]
        0x00009a08:    e3a00000    ....    MOV      r0,#0
        0x00009a0c:    e5c40000    ....    STRB     r0,[r4,#0]
        0x00009a10:    e51f0d2c    ,...    LDR      r0,0x8cec
        0x00009a14:    e5900000    ....    LDR      r0,[r0,#0]
        0x00009a18:    e5840004    ....    STR      r0,[r4,#4]
        0x00009a1c:    e51f0d38    8...    LDR      r0,0x8cec
        0x00009a20:    e5804000    .@..    STR      r4,[r0,#0]
        0x00009a24:    eb000b10    ....    BL       ARMEnableInt  ; 0xc66c
        0x00009a28:    e3570001    ..W.    CMP      r7,#1
        0x00009a2c:    1a000000    ....    BNE      0x9a34
        0x00009a30:    ebfffa91    ....    BL       OS_Sched  ; 0x847c
        0x00009a34:    e3a00000    ....    MOV      r0,#0
        0x00009a38:    e5c50000    ....    STRB     r0,[r5,#0]
        0x00009a3c:    e3a00000    ....    MOV      r0,#0
        0x00009a40:    eaffffae    ....    B        0x9900
        0x00009a44:    eb000b08    ....    BL       ARMEnableInt  ; 0xc66c
        0x00009a48:    e3a00007    ....    MOV      r0,#7
        0x00009a4c:    e5c50000    ....    STRB     r0,[r5,#0]
        0x00009a50:    e1a00004    ....    MOV      r0,r4
        0x00009a54:    eaffffa9    ....    B        0x9900
    OSQFlush
        0x00009a58:    e92d4038    8@-.    STMFD    r13!,{r3-r5,r14}
        0x00009a5c:    e1a05000    .P..    MOV      r5,r0
        0x00009a60:    e3550000    ..U.    CMP      r5,#0
        0x00009a64:    1a000001    ....    BNE      0x9a70
        0x00009a68:    e3a00004    ....    MOV      r0,#4
        0x00009a6c:    e8bd8038    8...    LDMFD    r13!,{r3-r5,pc}
        0x00009a70:    e5d50000    ....    LDRB     r0,[r5,#0]
        0x00009a74:    e3500002    ..P.    CMP      r0,#2
        0x00009a78:    0a000001    ....    BEQ      0x9a84
        0x00009a7c:    e3a00001    ....    MOV      r0,#1
        0x00009a80:    eafffff9    ....    B        0x9a6c
        0x00009a84:    eb000af3    ....    BL       ARMDisableInt  ; 0xc658
        0x00009a88:    e5954004    .@..    LDR      r4,[r5,#4]
        0x00009a8c:    e5940004    ....    LDR      r0,[r4,#4]
        0x00009a90:    e584000c    ....    STR      r0,[r4,#0xc]
        0x00009a94:    e5940004    ....    LDR      r0,[r4,#4]
        0x00009a98:    e5840010    ....    STR      r0,[r4,#0x10]
        0x00009a9c:    e3a00000    ....    MOV      r0,#0
        0x00009aa0:    e1c401b6    ....    STRH     r0,[r4,#0x16]
        0x00009aa4:    eb000af0    ....    BL       ARMEnableInt  ; 0xc66c
        0x00009aa8:    e3a00000    ....    MOV      r0,#0
        0x00009aac:    eaffffee    ....    B        0x9a6c
    OSQPend
        0x00009ab0:    e92d41f0    .A-.    STMFD    r13!,{r4-r8,r14}
        0x00009ab4:    e1a06000    .`..    MOV      r6,r0
        0x00009ab8:    e1a08001    ....    MOV      r8,r1
        0x00009abc:    e1a05002    .P..    MOV      r5,r2
        0x00009ac0:    e51f0e44    D...    LDR      r0,0x8c84
        0x00009ac4:    e5d00000    ....    LDRB     r0,[r0,#0]
        0x00009ac8:    e3500000    ..P.    CMP      r0,#0
        0x00009acc:    0a000003    ....    BEQ      0x9ae0
        0x00009ad0:    e3a00002    ....    MOV      r0,#2
        0x00009ad4:    e5c50000    ....    STRB     r0,[r5,#0]
        0x00009ad8:    e3a00000    ....    MOV      r0,#0
        0x00009adc:    e8bd81f0    ....    LDMFD    r13!,{r4-r8,pc}
        0x00009ae0:    e3560000    ..V.    CMP      r6,#0
        0x00009ae4:    1a000003    ....    BNE      0x9af8
        0x00009ae8:    e3a00004    ....    MOV      r0,#4
        0x00009aec:    e5c50000    ....    STRB     r0,[r5,#0]
        0x00009af0:    e3a00000    ....    MOV      r0,#0
        0x00009af4:    eafffff8    ....    B        0x9adc
        0x00009af8:    e5d60000    ....    LDRB     r0,[r6,#0]
        0x00009afc:    e3500002    ..P.    CMP      r0,#2
        0x00009b00:    0a000003    ....    BEQ      0x9b14
        0x00009b04:    e3a00001    ....    MOV      r0,#1
        0x00009b08:    e5c50000    ....    STRB     r0,[r5,#0]
        0x00009b0c:    e3a00000    ....    MOV      r0,#0
        0x00009b10:    eafffff1    ....    B        0x9adc
        0x00009b14:    eb000acf    ....    BL       ARMDisableInt  ; 0xc658
        0x00009b18:    e5964004    .@..    LDR      r4,[r6,#4]
        0x00009b1c:    e1d401b6    ....    LDRH     r0,[r4,#0x16]
        0x00009b20:    e3500000    ..P.    CMP      r0,#0
        0x00009b24:    0a000012    ....    BEQ      0x9b74
        0x00009b28:    e5940010    ....    LDR      r0,[r4,#0x10]
        0x00009b2c:    e2800004    ....    ADD      r0,r0,#4
        0x00009b30:    e5941010    ....    LDR      r1,[r4,#0x10]
        0x00009b34:    e5840010    ....    STR      r0,[r4,#0x10]
        0x00009b38:    e5917000    .p..    LDR      r7,[r1,#0]
        0x00009b3c:    e1d401b6    ....    LDRH     r0,[r4,#0x16]
        0x00009b40:    e2400001    ..@.    SUB      r0,r0,#1
        0x00009b44:    e1c401b6    ....    STRH     r0,[r4,#0x16]
        0x00009b48:    e5940010    ....    LDR      r0,[r4,#0x10]
        0x00009b4c:    e5941008    ....    LDR      r1,[r4,#8]
        0x00009b50:    e1500001    ..P.    CMP      r0,r1
        0x00009b54:    1a000001    ....    BNE      0x9b60
        0x00009b58:    e5940004    ....    LDR      r0,[r4,#4]
        0x00009b5c:    e5840010    ....    STR      r0,[r4,#0x10]
        0x00009b60:    eb000ac1    ....    BL       ARMEnableInt  ; 0xc66c
        0x00009b64:    e3a00000    ....    MOV      r0,#0
        0x00009b68:    e5c50000    ....    STRB     r0,[r5,#0]
        0x00009b6c:    e1a00007    ....    MOV      r0,r7
        0x00009b70:    eaffffd9    ....    B        0x9adc
        0x00009b74:    e51f0ea4    ....    LDR      r0,0x8cd8
        0x00009b78:    e5900000    ....    LDR      r0,[r0,#0]
        0x00009b7c:    e5d0002c    ,...    LDRB     r0,[r0,#0x2c]
        0x00009b80:    e3800004    ....    ORR      r0,r0,#4
        0x00009b84:    e51f1eb4    ....    LDR      r1,0x8cd8
        0x00009b88:    e5911000    ....    LDR      r1,[r1,#0]
        0x00009b8c:    e5c1002c    ,...    STRB     r0,[r1,#0x2c]
        0x00009b90:    e51f0ec0    ....    LDR      r0,0x8cd8
        0x00009b94:    e5900000    ....    LDR      r0,[r0,#0]
        0x00009b98:    e1c082ba    ....    STRH     r8,[r0,#0x2a]
        0x00009b9c:    e1a00006    ....    MOV      r0,r6
        0x00009ba0:    ebfffcba    ....    BL       OS_EventTaskWait  ; 0x8e90
        0x00009ba4:    eb000ab0    ....    BL       ARMEnableInt  ; 0xc66c
        0x00009ba8:    ebfffa33    3...    BL       OS_Sched  ; 0x847c
        0x00009bac:    eb000aa9    ....    BL       ARMDisableInt  ; 0xc658
        0x00009bb0:    e51f0ee0    ....    LDR      r0,0x8cd8
        0x00009bb4:    e5900000    ....    LDR      r0,[r0,#0]
        0x00009bb8:    e5907020     p..    LDR      r7,[r0,#0x20]
        0x00009bbc:    e3570000    ..W.    CMP      r7,#0
        0x00009bc0:    0a000010    ....    BEQ      0x9c08
        0x00009bc4:    e3a00000    ....    MOV      r0,#0
        0x00009bc8:    e51f1ef8    ....    LDR      r1,0x8cd8
        0x00009bcc:    e5911000    ....    LDR      r1,[r1,#0]
        0x00009bd0:    e5810020     ...    STR      r0,[r1,#0x20]
        0x00009bd4:    e3a00000    ....    MOV      r0,#0
        0x00009bd8:    e51f1f08    ....    LDR      r1,0x8cd8
        0x00009bdc:    e5911000    ....    LDR      r1,[r1,#0]
        0x00009be0:    e5c1002c    ,...    STRB     r0,[r1,#0x2c]
        0x00009be4:    e3a00000    ....    MOV      r0,#0
        0x00009be8:    e51f1f18    ....    LDR      r1,0x8cd8
        0x00009bec:    e5911000    ....    LDR      r1,[r1,#0]
        0x00009bf0:    e581001c    ....    STR      r0,[r1,#0x1c]
        0x00009bf4:    eb000a9c    ....    BL       ARMEnableInt  ; 0xc66c
        0x00009bf8:    e3a00000    ....    MOV      r0,#0
        0x00009bfc:    e5c50000    ....    STRB     r0,[r5,#0]
        0x00009c00:    e1a00007    ....    MOV      r0,r7
        0x00009c04:    eaffffb4    ....    B        0x9adc
        0x00009c08:    e1a00006    ....    MOV      r0,r6
        0x00009c0c:    ebfffcc9    ....    BL       OS_EventTO  ; 0x8f38
        0x00009c10:    eb000a95    ....    BL       ARMEnableInt  ; 0xc66c
        0x00009c14:    e3a0000a    ....    MOV      r0,#0xa
        0x00009c18:    e5c50000    ....    STRB     r0,[r5,#0]
        0x00009c1c:    e3a00000    ....    MOV      r0,#0
        0x00009c20:    eaffffad    ....    B        0x9adc
    OSQPost
        0x00009c24:    e92d4070    p@-.    STMFD    r13!,{r4-r6,r14}
        0x00009c28:    e1a05000    .P..    MOV      r5,r0
        0x00009c2c:    e1a06001    .`..    MOV      r6,r1
        0x00009c30:    e3550000    ..U.    CMP      r5,#0
        0x00009c34:    1a000001    ....    BNE      0x9c40
        0x00009c38:    e3a00004    ....    MOV      r0,#4
        0x00009c3c:    e8bd8070    p...    LDMFD    r13!,{r4-r6,pc}
        0x00009c40:    e3560000    ..V.    CMP      r6,#0
        0x00009c44:    1a000001    ....    BNE      0x9c50
        0x00009c48:    e3a00003    ....    MOV      r0,#3
        0x00009c4c:    eafffffa    ....    B        0x9c3c
        0x00009c50:    e5d50000    ....    LDRB     r0,[r5,#0]
        0x00009c54:    e3500002    ..P.    CMP      r0,#2
        0x00009c58:    0a000001    ....    BEQ      0x9c64
        0x00009c5c:    e3a00001    ....    MOV      r0,#1
        0x00009c60:    eafffff5    ....    B        0x9c3c
        0x00009c64:    eb000a7b    {...    BL       ARMDisableInt  ; 0xc658
        0x00009c68:    e5d50001    ....    LDRB     r0,[r5,#1]
        0x00009c6c:    e3500000    ..P.    CMP      r0,#0
        0x00009c70:    0a000007    ....    BEQ      0x9c94
        0x00009c74:    e3a02004    . ..    MOV      r2,#4
        0x00009c78:    e1a01006    ....    MOV      r1,r6
        0x00009c7c:    e1a00005    ....    MOV      r0,r5
        0x00009c80:    ebfffc52    R...    BL       OS_EventTaskRdy  ; 0x8dd0
        0x00009c84:    eb000a78    x...    BL       ARMEnableInt  ; 0xc66c
        0x00009c88:    ebfff9fb    ....    BL       OS_Sched  ; 0x847c
        0x00009c8c:    e3a00000    ....    MOV      r0,#0
        0x00009c90:    eaffffe9    ....    B        0x9c3c
        0x00009c94:    e5954004    .@..    LDR      r4,[r5,#4]
        0x00009c98:    e1d401b6    ....    LDRH     r0,[r4,#0x16]
        0x00009c9c:    e1d411b4    ....    LDRH     r1,[r4,#0x14]
        0x00009ca0:    e1500001    ..P.    CMP      r0,r1
        0x00009ca4:    3a000002    ...:    BCC      0x9cb4
        0x00009ca8:    eb000a6f    o...    BL       ARMEnableInt  ; 0xc66c
        0x00009cac:    e3a0001e    ....    MOV      r0,#0x1e
        0x00009cb0:    eaffffe1    ....    B        0x9c3c
        0x00009cb4:    e594000c    ....    LDR      r0,[r4,#0xc]
        0x00009cb8:    e2800004    ....    ADD      r0,r0,#4
        0x00009cbc:    e594100c    ....    LDR      r1,[r4,#0xc]
        0x00009cc0:    e584000c    ....    STR      r0,[r4,#0xc]
        0x00009cc4:    e5816000    .`..    STR      r6,[r1,#0]
        0x00009cc8:    e1d401b6    ....    LDRH     r0,[r4,#0x16]
        0x00009ccc:    e2800001    ....    ADD      r0,r0,#1
        0x00009cd0:    e1c401b6    ....    STRH     r0,[r4,#0x16]
        0x00009cd4:    e594000c    ....    LDR      r0,[r4,#0xc]
        0x00009cd8:    e5941008    ....    LDR      r1,[r4,#8]
        0x00009cdc:    e1500001    ..P.    CMP      r0,r1
        0x00009ce0:    1a000001    ....    BNE      0x9cec
        0x00009ce4:    e5940004    ....    LDR      r0,[r4,#4]
        0x00009ce8:    e584000c    ....    STR      r0,[r4,#0xc]
        0x00009cec:    eb000a5e    ^...    BL       ARMEnableInt  ; 0xc66c
        0x00009cf0:    e3a00000    ....    MOV      r0,#0
        0x00009cf4:    eaffffd0    ....    B        0x9c3c
    OSQPostFront
        0x00009cf8:    e92d4070    p@-.    STMFD    r13!,{r4-r6,r14}
        0x00009cfc:    e1a05000    .P..    MOV      r5,r0
        0x00009d00:    e1a06001    .`..    MOV      r6,r1
        0x00009d04:    e3550000    ..U.    CMP      r5,#0
        0x00009d08:    1a000001    ....    BNE      0x9d14
        0x00009d0c:    e3a00004    ....    MOV      r0,#4
        0x00009d10:    e8bd8070    p...    LDMFD    r13!,{r4-r6,pc}
        0x00009d14:    e3560000    ..V.    CMP      r6,#0
        0x00009d18:    1a000001    ....    BNE      0x9d24
        0x00009d1c:    e3a00003    ....    MOV      r0,#3
        0x00009d20:    eafffffa    ....    B        0x9d10
        0x00009d24:    e5d50000    ....    LDRB     r0,[r5,#0]
        0x00009d28:    e3500002    ..P.    CMP      r0,#2
        0x00009d2c:    0a000001    ....    BEQ      0x9d38
        0x00009d30:    e3a00001    ....    MOV      r0,#1
        0x00009d34:    eafffff5    ....    B        0x9d10
        0x00009d38:    eb000a46    F...    BL       ARMDisableInt  ; 0xc658
        0x00009d3c:    e5d50001    ....    LDRB     r0,[r5,#1]
        0x00009d40:    e3500000    ..P.    CMP      r0,#0
        0x00009d44:    0a000007    ....    BEQ      0x9d68
        0x00009d48:    e3a02004    . ..    MOV      r2,#4
        0x00009d4c:    e1a01006    ....    MOV      r1,r6
        0x00009d50:    e1a00005    ....    MOV      r0,r5
        0x00009d54:    ebfffc1d    ....    BL       OS_EventTaskRdy  ; 0x8dd0
        0x00009d58:    eb000a43    C...    BL       ARMEnableInt  ; 0xc66c
        0x00009d5c:    ebfff9c6    ....    BL       OS_Sched  ; 0x847c
        0x00009d60:    e3a00000    ....    MOV      r0,#0
        0x00009d64:    eaffffe9    ....    B        0x9d10
        0x00009d68:    e5954004    .@..    LDR      r4,[r5,#4]
        0x00009d6c:    e1d401b6    ....    LDRH     r0,[r4,#0x16]
        0x00009d70:    e1d411b4    ....    LDRH     r1,[r4,#0x14]
        0x00009d74:    e1500001    ..P.    CMP      r0,r1
        0x00009d78:    3a000002    ...:    BCC      0x9d88
        0x00009d7c:    eb000a3a    :...    BL       ARMEnableInt  ; 0xc66c
        0x00009d80:    e3a0001e    ....    MOV      r0,#0x1e
        0x00009d84:    eaffffe1    ....    B        0x9d10
        0x00009d88:    e5940010    ....    LDR      r0,[r4,#0x10]
        0x00009d8c:    e5941004    ....    LDR      r1,[r4,#4]
        0x00009d90:    e1500001    ..P.    CMP      r0,r1
        0x00009d94:    1a000001    ....    BNE      0x9da0
        0x00009d98:    e5940008    ....    LDR      r0,[r4,#8]
        0x00009d9c:    e5840010    ....    STR      r0,[r4,#0x10]
        0x00009da0:    e5940010    ....    LDR      r0,[r4,#0x10]
        0x00009da4:    e2400004    ..@.    SUB      r0,r0,#4
        0x00009da8:    e5840010    ....    STR      r0,[r4,#0x10]
        0x00009dac:    e5940010    ....    LDR      r0,[r4,#0x10]
        0x00009db0:    e5806000    .`..    STR      r6,[r0,#0]
        0x00009db4:    e1d401b6    ....    LDRH     r0,[r4,#0x16]
        0x00009db8:    e2800001    ....    ADD      r0,r0,#1
        0x00009dbc:    e1c401b6    ....    STRH     r0,[r4,#0x16]
        0x00009dc0:    eb000a29    )...    BL       ARMEnableInt  ; 0xc66c
        0x00009dc4:    e3a00000    ....    MOV      r0,#0
        0x00009dc8:    eaffffd0    ....    B        0x9d10
    OSQPostOpt
        0x00009dcc:    e92d40f8    .@-.    STMFD    r13!,{r3-r7,r14}
        0x00009dd0:    e1a05000    .P..    MOV      r5,r0
        0x00009dd4:    e1a06001    .`..    MOV      r6,r1
        0x00009dd8:    e1a07002    .p..    MOV      r7,r2
        0x00009ddc:    e3550000    ..U.    CMP      r5,#0
        0x00009de0:    1a000001    ....    BNE      0x9dec
        0x00009de4:    e3a00004    ....    MOV      r0,#4
        0x00009de8:    e8bd80f8    ....    LDMFD    r13!,{r3-r7,pc}
        0x00009dec:    e3560000    ..V.    CMP      r6,#0
        0x00009df0:    1a000001    ....    BNE      0x9dfc
        0x00009df4:    e3a00003    ....    MOV      r0,#3
        0x00009df8:    eafffffa    ....    B        0x9de8
        0x00009dfc:    e5d50000    ....    LDRB     r0,[r5,#0]
        0x00009e00:    e3500002    ..P.    CMP      r0,#2
        0x00009e04:    0a000001    ....    BEQ      0x9e10
        0x00009e08:    e3a00001    ....    MOV      r0,#1
        0x00009e0c:    eafffff5    ....    B        0x9de8
        0x00009e10:    eb000a10    ....    BL       ARMDisableInt  ; 0xc658
        0x00009e14:    e5d50001    ....    LDRB     r0,[r5,#1]
        0x00009e18:    e3500000    ..P.    CMP      r0,#0
        0x00009e1c:    0a000012    ....    BEQ      0x9e6c
        0x00009e20:    e3170001    ....    TST      r7,#1
        0x00009e24:    0a000008    ....    BEQ      0x9e4c
        0x00009e28:    e1a00000    ....    NOP      
        0x00009e2c:    e5d50001    ....    LDRB     r0,[r5,#1]
        0x00009e30:    e3500000    ..P.    CMP      r0,#0
        0x00009e34:    0a000008    ....    BEQ      0x9e5c
        0x00009e38:    e3a02004    . ..    MOV      r2,#4
        0x00009e3c:    e1a01006    ....    MOV      r1,r6
        0x00009e40:    e1a00005    ....    MOV      r0,r5
        0x00009e44:    ebfffbe1    ....    BL       OS_EventTaskRdy  ; 0x8dd0
        0x00009e48:    eafffff7    ....    B        0x9e2c
        0x00009e4c:    e3a02004    . ..    MOV      r2,#4
        0x00009e50:    e1a01006    ....    MOV      r1,r6
        0x00009e54:    e1a00005    ....    MOV      r0,r5
        0x00009e58:    ebfffbdc    ....    BL       OS_EventTaskRdy  ; 0x8dd0
        0x00009e5c:    eb000a02    ....    BL       ARMEnableInt  ; 0xc66c
        0x00009e60:    ebfff985    ....    BL       OS_Sched  ; 0x847c
        0x00009e64:    e3a00000    ....    MOV      r0,#0
        0x00009e68:    eaffffde    ....    B        0x9de8
        0x00009e6c:    e5954004    .@..    LDR      r4,[r5,#4]
        0x00009e70:    e1d401b6    ....    LDRH     r0,[r4,#0x16]
        0x00009e74:    e1d411b4    ....    LDRH     r1,[r4,#0x14]
        0x00009e78:    e1500001    ..P.    CMP      r0,r1
        0x00009e7c:    3a000002    ...:    BCC      0x9e8c
        0x00009e80:    eb0009f9    ....    BL       ARMEnableInt  ; 0xc66c
        0x00009e84:    e3a0001e    ....    MOV      r0,#0x1e
        0x00009e88:    eaffffd6    ....    B        0x9de8
        0x00009e8c:    e3170002    ....    TST      r7,#2
        0x00009e90:    0a00000b    ....    BEQ      0x9ec4
        0x00009e94:    e5940010    ....    LDR      r0,[r4,#0x10]
        0x00009e98:    e5941004    ....    LDR      r1,[r4,#4]
        0x00009e9c:    e1500001    ..P.    CMP      r0,r1
        0x00009ea0:    1a000001    ....    BNE      0x9eac
        0x00009ea4:    e5940008    ....    LDR      r0,[r4,#8]
        0x00009ea8:    e5840010    ....    STR      r0,[r4,#0x10]
        0x00009eac:    e5940010    ....    LDR      r0,[r4,#0x10]
        0x00009eb0:    e2400004    ..@.    SUB      r0,r0,#4
        0x00009eb4:    e5840010    ....    STR      r0,[r4,#0x10]
        0x00009eb8:    e5940010    ....    LDR      r0,[r4,#0x10]
        0x00009ebc:    e5806000    .`..    STR      r6,[r0,#0]
        0x00009ec0:    ea00000a    ....    B        0x9ef0
        0x00009ec4:    e594000c    ....    LDR      r0,[r4,#0xc]
        0x00009ec8:    e2800004    ....    ADD      r0,r0,#4
        0x00009ecc:    e594100c    ....    LDR      r1,[r4,#0xc]
        0x00009ed0:    e584000c    ....    STR      r0,[r4,#0xc]
        0x00009ed4:    e5816000    .`..    STR      r6,[r1,#0]
        0x00009ed8:    e594000c    ....    LDR      r0,[r4,#0xc]
        0x00009edc:    e5941008    ....    LDR      r1,[r4,#8]
        0x00009ee0:    e1500001    ..P.    CMP      r0,r1
        0x00009ee4:    1a000001    ....    BNE      0x9ef0
        0x00009ee8:    e5940004    ....    LDR      r0,[r4,#4]
        0x00009eec:    e584000c    ....    STR      r0,[r4,#0xc]
        0x00009ef0:    e1d401b6    ....    LDRH     r0,[r4,#0x16]
        0x00009ef4:    e2800001    ....    ADD      r0,r0,#1
        0x00009ef8:    e1c401b6    ....    STRH     r0,[r4,#0x16]
        0x00009efc:    eb0009da    ....    BL       ARMEnableInt  ; 0xc66c
        0x00009f00:    e3a00000    ....    MOV      r0,#0
        0x00009f04:    eaffffb7    ....    B        0x9de8
    OSQQuery
        0x00009f08:    e92d41f0    .A-.    STMFD    r13!,{r4-r8,r14}
        0x00009f0c:    e1a05000    .P..    MOV      r5,r0
        0x00009f10:    e1a04001    .@..    MOV      r4,r1
        0x00009f14:    e3550000    ..U.    CMP      r5,#0
        0x00009f18:    1a000001    ....    BNE      0x9f24
        0x00009f1c:    e3a00004    ....    MOV      r0,#4
        0x00009f20:    e8bd81f0    ....    LDMFD    r13!,{r4-r8,pc}
        0x00009f24:    e5d50000    ....    LDRB     r0,[r5,#0]
        0x00009f28:    e3500002    ..P.    CMP      r0,#2
        0x00009f2c:    0a000001    ....    BEQ      0x9f38
        0x00009f30:    e3a00001    ....    MOV      r0,#1
        0x00009f34:    eafffff9    ....    B        0x9f20
        0x00009f38:    eb0009c6    ....    BL       ARMDisableInt  ; 0xc658
        0x00009f3c:    e5d50001    ....    LDRB     r0,[r5,#1]
        0x00009f40:    e5c4000a    ....    STRB     r0,[r4,#0xa]
        0x00009f44:    e2857008    .p..    ADD      r7,r5,#8
        0x00009f48:    e2848008    ....    ADD      r8,r4,#8
        0x00009f4c:    e4d71001    ....    LDRB     r1,[r7],#1
        0x00009f50:    e4c81001    ....    STRB     r1,[r8],#1
        0x00009f54:    e4d71001    ....    LDRB     r1,[r7],#1
        0x00009f58:    e4c81001    ....    STRB     r1,[r8],#1
        0x00009f5c:    e5956004    .`..    LDR      r6,[r5,#4]
        0x00009f60:    e1d601b6    ....    LDRH     r0,[r6,#0x16]
        0x00009f64:    e3500000    ..P.    CMP      r0,#0
        0x00009f68:    0a000002    ....    BEQ      0x9f78
        0x00009f6c:    e5960010    ....    LDR      r0,[r6,#0x10]
        0x00009f70:    e5840000    ....    STR      r0,[r4,#0]
        0x00009f74:    ea000001    ....    B        0x9f80
        0x00009f78:    e3a00000    ....    MOV      r0,#0
        0x00009f7c:    e5840000    ....    STR      r0,[r4,#0]
        0x00009f80:    e1d601b6    ....    LDRH     r0,[r6,#0x16]
        0x00009f84:    e1c400b4    ....    STRH     r0,[r4,#4]
        0x00009f88:    e1d601b4    ....    LDRH     r0,[r6,#0x14]
        0x00009f8c:    e1c400b6    ....    STRH     r0,[r4,#6]
        0x00009f90:    eb0009b5    ....    BL       ARMEnableInt  ; 0xc66c
        0x00009f94:    e3a00000    ....    MOV      r0,#0
        0x00009f98:    eaffffe0    ....    B        0x9f20
    OSSemAccept
        0x00009f9c:    e92d4038    8@-.    STMFD    r13!,{r3-r5,r14}
        0x00009fa0:    e1a04000    .@..    MOV      r4,r0
        0x00009fa4:    e3540000    ..T.    CMP      r4,#0
        0x00009fa8:    1a000001    ....    BNE      0x9fb4
        0x00009fac:    e3a00000    ....    MOV      r0,#0
        0x00009fb0:    e8bd8038    8...    LDMFD    r13!,{r3-r5,pc}
        0x00009fb4:    e5d40000    ....    LDRB     r0,[r4,#0]
        0x00009fb8:    e3500003    ..P.    CMP      r0,#3
        0x00009fbc:    0a000001    ....    BEQ      0x9fc8
        0x00009fc0:    e3a00000    ....    MOV      r0,#0
        0x00009fc4:    eafffff9    ....    B        0x9fb0
        0x00009fc8:    eb0009a2    ....    BL       ARMDisableInt  ; 0xc658
        0x00009fcc:    e1d450b2    .P..    LDRH     r5,[r4,#2]
        0x00009fd0:    e3550000    ..U.    CMP      r5,#0
        0x00009fd4:    0a000002    ....    BEQ      0x9fe4
        0x00009fd8:    e1d400b2    ....    LDRH     r0,[r4,#2]
        0x00009fdc:    e2400001    ..@.    SUB      r0,r0,#1
        0x00009fe0:    e1c400b2    ....    STRH     r0,[r4,#2]
        0x00009fe4:    eb0009a0    ....    BL       ARMEnableInt  ; 0xc66c
        0x00009fe8:    e1a00005    ....    MOV      r0,r5
        0x00009fec:    eaffffef    ....    B        0x9fb0
    OSSemCreate
        0x00009ff0:    e92d4038    8@-.    STMFD    r13!,{r3-r5,r14}
        0x00009ff4:    e1a05000    .P..    MOV      r5,r0
        0x00009ff8:    e59f086c    l...    LDR      r0,0xa86c
        0x00009ffc:    e5d00000    ....    LDRB     r0,[r0,#0]
        0x0000a000:    e3500000    ..P.    CMP      r0,#0
        0x0000a004:    0a000001    ....    BEQ      0xa010
        0x0000a008:    e3a00000    ....    MOV      r0,#0
        0x0000a00c:    e8bd8038    8...    LDMFD    r13!,{r3-r5,pc}
        0x0000a010:    eb000990    ....    BL       ARMDisableInt  ; 0xc658
        0x0000a014:    e59f0854    T...    LDR      r0,0xa870
        0x0000a018:    e5904000    .@..    LDR      r4,[r0,#0]
        0x0000a01c:    e59f084c    L...    LDR      r0,0xa870
        0x0000a020:    e5900000    ....    LDR      r0,[r0,#0]
        0x0000a024:    e3500000    ..P.    CMP      r0,#0
        0x0000a028:    0a000004    ....    BEQ      0xa040
        0x0000a02c:    e59f083c    <...    LDR      r0,0xa870
        0x0000a030:    e5900000    ....    LDR      r0,[r0,#0]
        0x0000a034:    e5900004    ....    LDR      r0,[r0,#4]
        0x0000a038:    e59f1830    0...    LDR      r1,0xa870
        0x0000a03c:    e5810000    ....    STR      r0,[r1,#0]
        0x0000a040:    eb000989    ....    BL       ARMEnableInt  ; 0xc66c
        0x0000a044:    e3540000    ..T.    CMP      r4,#0
        0x0000a048:    0a000004    ....    BEQ      0xa060
        0x0000a04c:    e3a00003    ....    MOV      r0,#3
        0x0000a050:    e5c40000    ....    STRB     r0,[r4,#0]
        0x0000a054:    e1c450b2    .P..    STRH     r5,[r4,#2]
        0x0000a058:    e1a00004    ....    MOV      r0,r4
        0x0000a05c:    ebfffbd1    ....    BL       OS_EventWaitListInit  ; 0x8fa8
        0x0000a060:    e1a00004    ....    MOV      r0,r4
        0x0000a064:    eaffffe8    ....    B        0xa00c
    OSSemDel
        0x0000a068:    e92d40f8    .@-.    STMFD    r13!,{r3-r7,r14}
        0x0000a06c:    e1a04000    .@..    MOV      r4,r0
        0x0000a070:    e1a07001    .p..    MOV      r7,r1
        0x0000a074:    e1a05002    .P..    MOV      r5,r2
        0x0000a078:    e59f07ec    ....    LDR      r0,0xa86c
        0x0000a07c:    e5d00000    ....    LDRB     r0,[r0,#0]
        0x0000a080:    e3500000    ..P.    CMP      r0,#0
        0x0000a084:    0a000003    ....    BEQ      0xa098
        0x0000a088:    e3a0008c    ....    MOV      r0,#0x8c
        0x0000a08c:    e5c50000    ....    STRB     r0,[r5,#0]
        0x0000a090:    e1a00004    ....    MOV      r0,r4
        0x0000a094:    e8bd80f8    ....    LDMFD    r13!,{r3-r7,pc}
        0x0000a098:    e3540000    ..T.    CMP      r4,#0
        0x0000a09c:    1a000003    ....    BNE      0xa0b0
        0x0000a0a0:    e3a00004    ....    MOV      r0,#4
        0x0000a0a4:    e5c50000    ....    STRB     r0,[r5,#0]
        0x0000a0a8:    e1a00004    ....    MOV      r0,r4
        0x0000a0ac:    eafffff8    ....    B        0xa094
        0x0000a0b0:    e5d40000    ....    LDRB     r0,[r4,#0]
        0x0000a0b4:    e3500003    ..P.    CMP      r0,#3
        0x0000a0b8:    0a000003    ....    BEQ      0xa0cc
        0x0000a0bc:    e3a00001    ....    MOV      r0,#1
        0x0000a0c0:    e5c50000    ....    STRB     r0,[r5,#0]
        0x0000a0c4:    e1a00004    ....    MOV      r0,r4
        0x0000a0c8:    eafffff1    ....    B        0xa094
        0x0000a0cc:    eb000961    a...    BL       ARMDisableInt  ; 0xc658
        0x0000a0d0:    e5d40001    ....    LDRB     r0,[r4,#1]
        0x0000a0d4:    e3500000    ..P.    CMP      r0,#0
        0x0000a0d8:    0a000001    ....    BEQ      0xa0e4
        0x0000a0dc:    e3a06001    .`..    MOV      r6,#1
        0x0000a0e0:    ea000000    ....    B        0xa0e8
        0x0000a0e4:    e3a06000    .`..    MOV      r6,#0
        0x0000a0e8:    e3570000    ..W.    CMP      r7,#0
        0x0000a0ec:    0a000002    ....    BEQ      0xa0fc
        0x0000a0f0:    e3570001    ..W.    CMP      r7,#1
        0x0000a0f4:    1a00002b    +...    BNE      0xa1a8
        0x0000a0f8:    ea000012    ....    B        0xa148
        0x0000a0fc:    e3560000    ..V.    CMP      r6,#0
        0x0000a100:    1a00000b    ....    BNE      0xa134
        0x0000a104:    e3a00000    ....    MOV      r0,#0
        0x0000a108:    e5c40000    ....    STRB     r0,[r4,#0]
        0x0000a10c:    e59f075c    \...    LDR      r0,0xa870
        0x0000a110:    e5900000    ....    LDR      r0,[r0,#0]
        0x0000a114:    e5840004    ....    STR      r0,[r4,#4]
        0x0000a118:    e59f0750    P...    LDR      r0,0xa870
        0x0000a11c:    e5804000    .@..    STR      r4,[r0,#0]
        0x0000a120:    eb000951    Q...    BL       ARMEnableInt  ; 0xc66c
        0x0000a124:    e3a00000    ....    MOV      r0,#0
        0x0000a128:    e5c50000    ....    STRB     r0,[r5,#0]
        0x0000a12c:    e3a00000    ....    MOV      r0,#0
        0x0000a130:    eaffffd7    ....    B        0xa094
        0x0000a134:    eb00094c    L...    BL       ARMEnableInt  ; 0xc66c
        0x0000a138:    e3a00008    ....    MOV      r0,#8
        0x0000a13c:    e5c50000    ....    STRB     r0,[r5,#0]
        0x0000a140:    e1a00004    ....    MOV      r0,r4
        0x0000a144:    eaffffd2    ....    B        0xa094
        0x0000a148:    e1a00000    ....    NOP      
        0x0000a14c:    e5d40001    ....    LDRB     r0,[r4,#1]
        0x0000a150:    e3500000    ..P.    CMP      r0,#0
        0x0000a154:    0a000004    ....    BEQ      0xa16c
        0x0000a158:    e3a02001    . ..    MOV      r2,#1
        0x0000a15c:    e3a01000    ....    MOV      r1,#0
        0x0000a160:    e1a00004    ....    MOV      r0,r4
        0x0000a164:    ebfffb19    ....    BL       OS_EventTaskRdy  ; 0x8dd0
        0x0000a168:    eafffff7    ....    B        0xa14c
        0x0000a16c:    e3a00000    ....    MOV      r0,#0
        0x0000a170:    e5c40000    ....    STRB     r0,[r4,#0]
        0x0000a174:    e59f06f4    ....    LDR      r0,0xa870
        0x0000a178:    e5900000    ....    LDR      r0,[r0,#0]
        0x0000a17c:    e5840004    ....    STR      r0,[r4,#4]
        0x0000a180:    e59f06e8    ....    LDR      r0,0xa870
        0x0000a184:    e5804000    .@..    STR      r4,[r0,#0]
        0x0000a188:    eb000937    7...    BL       ARMEnableInt  ; 0xc66c
        0x0000a18c:    e3560001    ..V.    CMP      r6,#1
        0x0000a190:    1a000000    ....    BNE      0xa198
        0x0000a194:    ebfff8b8    ....    BL       OS_Sched  ; 0x847c
        0x0000a198:    e3a00000    ....    MOV      r0,#0
        0x0000a19c:    e5c50000    ....    STRB     r0,[r5,#0]
        0x0000a1a0:    e3a00000    ....    MOV      r0,#0
        0x0000a1a4:    eaffffba    ....    B        0xa094
        0x0000a1a8:    eb00092f    /...    BL       ARMEnableInt  ; 0xc66c
        0x0000a1ac:    e3a00007    ....    MOV      r0,#7
        0x0000a1b0:    e5c50000    ....    STRB     r0,[r5,#0]
        0x0000a1b4:    e1a00004    ....    MOV      r0,r4
        0x0000a1b8:    eaffffb5    ....    B        0xa094
    OSSemPend
        0x0000a1bc:    e92d4070    p@-.    STMFD    r13!,{r4-r6,r14}
        0x0000a1c0:    e1a04000    .@..    MOV      r4,r0
        0x0000a1c4:    e1a06001    .`..    MOV      r6,r1
        0x0000a1c8:    e1a05002    .P..    MOV      r5,r2
        0x0000a1cc:    e59f0698    ....    LDR      r0,0xa86c
        0x0000a1d0:    e5d00000    ....    LDRB     r0,[r0,#0]
        0x0000a1d4:    e3500000    ..P.    CMP      r0,#0
        0x0000a1d8:    0a000002    ....    BEQ      0xa1e8
        0x0000a1dc:    e3a00002    ....    MOV      r0,#2
        0x0000a1e0:    e5c50000    ....    STRB     r0,[r5,#0]
        0x0000a1e4:    e8bd8070    p...    LDMFD    r13!,{r4-r6,pc}
        0x0000a1e8:    e3540000    ..T.    CMP      r4,#0
        0x0000a1ec:    1a000002    ....    BNE      0xa1fc
        0x0000a1f0:    e3a00004    ....    MOV      r0,#4
        0x0000a1f4:    e5c50000    ....    STRB     r0,[r5,#0]
        0x0000a1f8:    eafffff9    ....    B        0xa1e4
        0x0000a1fc:    e5d40000    ....    LDRB     r0,[r4,#0]
        0x0000a200:    e3500003    ..P.    CMP      r0,#3
        0x0000a204:    0a000002    ....    BEQ      0xa214
        0x0000a208:    e3a00001    ....    MOV      r0,#1
        0x0000a20c:    e5c50000    ....    STRB     r0,[r5,#0]
        0x0000a210:    eafffff3    ....    B        0xa1e4
        0x0000a214:    eb00090f    ....    BL       ARMDisableInt  ; 0xc658
        0x0000a218:    e1d400b2    ....    LDRH     r0,[r4,#2]
        0x0000a21c:    e3500000    ..P.    CMP      r0,#0
        0x0000a220:    0a000006    ....    BEQ      0xa240
        0x0000a224:    e1d400b2    ....    LDRH     r0,[r4,#2]
        0x0000a228:    e2400001    ..@.    SUB      r0,r0,#1
        0x0000a22c:    e1c400b2    ....    STRH     r0,[r4,#2]
        0x0000a230:    eb00090d    ....    BL       ARMEnableInt  ; 0xc66c
        0x0000a234:    e3a00000    ....    MOV      r0,#0
        0x0000a238:    e5c50000    ....    STRB     r0,[r5,#0]
        0x0000a23c:    eaffffe8    ....    B        0xa1e4
        0x0000a240:    e59f062c    ,...    LDR      r0,0xa874
        0x0000a244:    e5900000    ....    LDR      r0,[r0,#0]
        0x0000a248:    e5d0002c    ,...    LDRB     r0,[r0,#0x2c]
        0x0000a24c:    e3800001    ....    ORR      r0,r0,#1
        0x0000a250:    e59f161c    ....    LDR      r1,0xa874
        0x0000a254:    e5911000    ....    LDR      r1,[r1,#0]
        0x0000a258:    e5c1002c    ,...    STRB     r0,[r1,#0x2c]
        0x0000a25c:    e59f0610    ....    LDR      r0,0xa874
        0x0000a260:    e5900000    ....    LDR      r0,[r0,#0]
        0x0000a264:    e1c062ba    .b..    STRH     r6,[r0,#0x2a]
        0x0000a268:    e1a00004    ....    MOV      r0,r4
        0x0000a26c:    ebfffb07    ....    BL       OS_EventTaskWait  ; 0x8e90
        0x0000a270:    eb0008fd    ....    BL       ARMEnableInt  ; 0xc66c
        0x0000a274:    ebfff880    ....    BL       OS_Sched  ; 0x847c
        0x0000a278:    eb0008f6    ....    BL       ARMDisableInt  ; 0xc658
        0x0000a27c:    e59f05f0    ....    LDR      r0,0xa874
        0x0000a280:    e5900000    ....    LDR      r0,[r0,#0]
        0x0000a284:    e5d0002c    ,...    LDRB     r0,[r0,#0x2c]
        0x0000a288:    e3100001    ....    TST      r0,#1
        0x0000a28c:    0a000005    ....    BEQ      0xa2a8
        0x0000a290:    e1a00004    ....    MOV      r0,r4
        0x0000a294:    ebfffb27    '...    BL       OS_EventTO  ; 0x8f38
        0x0000a298:    eb0008f3    ....    BL       ARMEnableInt  ; 0xc66c
        0x0000a29c:    e3a0000a    ....    MOV      r0,#0xa
        0x0000a2a0:    e5c50000    ....    STRB     r0,[r5,#0]
        0x0000a2a4:    eaffffce    ....    B        0xa1e4
        0x0000a2a8:    e3a00000    ....    MOV      r0,#0
        0x0000a2ac:    e59f15c0    ....    LDR      r1,0xa874
        0x0000a2b0:    e5911000    ....    LDR      r1,[r1,#0]
        0x0000a2b4:    e581001c    ....    STR      r0,[r1,#0x1c]
        0x0000a2b8:    eb0008eb    ....    BL       ARMEnableInt  ; 0xc66c
        0x0000a2bc:    e3a00000    ....    MOV      r0,#0
        0x0000a2c0:    e5c50000    ....    STRB     r0,[r5,#0]
        0x0000a2c4:    eaffffc6    ....    B        0xa1e4
    OSSemPost
        0x0000a2c8:    e92d4010    .@-.    STMFD    r13!,{r4,r14}
        0x0000a2cc:    e1a04000    .@..    MOV      r4,r0
        0x0000a2d0:    e3540000    ..T.    CMP      r4,#0
        0x0000a2d4:    1a000001    ....    BNE      0xa2e0
        0x0000a2d8:    e3a00004    ....    MOV      r0,#4
        0x0000a2dc:    e8bd8010    ....    LDMFD    r13!,{r4,pc}
        0x0000a2e0:    e5d40000    ....    LDRB     r0,[r4,#0]
        0x0000a2e4:    e3500003    ..P.    CMP      r0,#3
        0x0000a2e8:    0a000001    ....    BEQ      0xa2f4
        0x0000a2ec:    e3a00001    ....    MOV      r0,#1
        0x0000a2f0:    eafffff9    ....    B        0xa2dc
        0x0000a2f4:    eb0008d7    ....    BL       ARMDisableInt  ; 0xc658
        0x0000a2f8:    e5d40001    ....    LDRB     r0,[r4,#1]
        0x0000a2fc:    e3500000    ..P.    CMP      r0,#0
        0x0000a300:    0a000007    ....    BEQ      0xa324
        0x0000a304:    e3a02001    . ..    MOV      r2,#1
        0x0000a308:    e3a01000    ....    MOV      r1,#0
        0x0000a30c:    e1a00004    ....    MOV      r0,r4
        0x0000a310:    ebfffaae    ....    BL       OS_EventTaskRdy  ; 0x8dd0
        0x0000a314:    eb0008d4    ....    BL       ARMEnableInt  ; 0xc66c
        0x0000a318:    ebfff857    W...    BL       OS_Sched  ; 0x847c
        0x0000a31c:    e3a00000    ....    MOV      r0,#0
        0x0000a320:    eaffffed    ....    B        0xa2dc
        0x0000a324:    e1d400b2    ....    LDRH     r0,[r4,#2]
        0x0000a328:    e250ccff    ..P.    SUBS     r12,r0,#0xff00
        0x0000a32c:    225cc0ff    ..\"    SUBCSS   r12,r12,#0xff
        0x0000a330:    2a000005    ...*    BCS      0xa34c
        0x0000a334:    e1d400b2    ....    LDRH     r0,[r4,#2]
        0x0000a338:    e2800001    ....    ADD      r0,r0,#1
        0x0000a33c:    e1c400b2    ....    STRH     r0,[r4,#2]
        0x0000a340:    eb0008c9    ....    BL       ARMEnableInt  ; 0xc66c
        0x0000a344:    e3a00000    ....    MOV      r0,#0
        0x0000a348:    eaffffe3    ....    B        0xa2dc
        0x0000a34c:    eb0008c6    ....    BL       ARMEnableInt  ; 0xc66c
        0x0000a350:    e3a00032    2...    MOV      r0,#0x32
        0x0000a354:    eaffffe0    ....    B        0xa2dc
    OSSemQuery
        0x0000a358:    e92d40f8    .@-.    STMFD    r13!,{r3-r7,r14}
        0x0000a35c:    e1a04000    .@..    MOV      r4,r0
        0x0000a360:    e1a07001    .p..    MOV      r7,r1
        0x0000a364:    e3540000    ..T.    CMP      r4,#0
        0x0000a368:    1a000001    ....    BNE      0xa374
        0x0000a36c:    e3a00004    ....    MOV      r0,#4
        0x0000a370:    e8bd80f8    ....    LDMFD    r13!,{r3-r7,pc}
        0x0000a374:    e5d40000    ....    LDRB     r0,[r4,#0]
        0x0000a378:    e3500003    ..P.    CMP      r0,#3
        0x0000a37c:    0a000001    ....    BEQ      0xa388
        0x0000a380:    e3a00001    ....    MOV      r0,#1
        0x0000a384:    eafffff9    ....    B        0xa370
        0x0000a388:    eb0008b2    ....    BL       ARMDisableInt  ; 0xc658
        0x0000a38c:    e5d40001    ....    LDRB     r0,[r4,#1]
        0x0000a390:    e5c70004    ....    STRB     r0,[r7,#4]
        0x0000a394:    e2845008    .P..    ADD      r5,r4,#8
        0x0000a398:    e2876002    .`..    ADD      r6,r7,#2
        0x0000a39c:    e4d51001    ....    LDRB     r1,[r5],#1
        0x0000a3a0:    e4c61001    ....    STRB     r1,[r6],#1
        0x0000a3a4:    e4d51001    ....    LDRB     r1,[r5],#1
        0x0000a3a8:    e4c61001    ....    STRB     r1,[r6],#1
        0x0000a3ac:    e1d400b2    ....    LDRH     r0,[r4,#2]
        0x0000a3b0:    e1c700b0    ....    STRH     r0,[r7,#0]
        0x0000a3b4:    eb0008ac    ....    BL       ARMEnableInt  ; 0xc66c
        0x0000a3b8:    e3a00000    ....    MOV      r0,#0
        0x0000a3bc:    eaffffeb    ....    B        0xa370
    OSTaskChangePrio
        0x0000a3c0:    e92d4ff8    .O-.    STMFD    r13!,{r3-r11,r14}
        0x0000a3c4:    e1a07000    .p..    MOV      r7,r0
        0x0000a3c8:    e1a05001    .P..    MOV      r5,r1
        0x0000a3cc:    e357000c    ..W.    CMP      r7,#0xc
        0x0000a3d0:    3a000001    ...:    BCC      0xa3dc
        0x0000a3d4:    e35700ff    ..W.    CMP      r7,#0xff
        0x0000a3d8:    1a000001    ....    BNE      0xa3e4
        0x0000a3dc:    e355000c    ..U.    CMP      r5,#0xc
        0x0000a3e0:    3a000001    ...:    BCC      0xa3ec
        0x0000a3e4:    e3a0002a    *...    MOV      r0,#0x2a
        0x0000a3e8:    e8bd8ff8    ....    LDMFD    r13!,{r3-r11,pc}
        0x0000a3ec:    eb000899    ....    BL       ARMDisableInt  ; 0xc658
        0x0000a3f0:    e59f0480    ....    LDR      r0,0xa878
        0x0000a3f4:    e7900105    ....    LDR      r0,[r0,r5,LSL #2]
        0x0000a3f8:    e3500000    ..P.    CMP      r0,#0
        0x0000a3fc:    0a000002    ....    BEQ      0xa40c
        0x0000a400:    eb000899    ....    BL       ARMEnableInt  ; 0xc66c
        0x0000a404:    e3a00028    (...    MOV      r0,#0x28
        0x0000a408:    eafffff6    ....    B        0xa3e8
        0x0000a40c:    e3a00001    ....    MOV      r0,#1
        0x0000a410:    e59f1460    `...    LDR      r1,0xa878
        0x0000a414:    e7810105    ....    STR      r0,[r1,r5,LSL #2]
        0x0000a418:    eb000893    ....    BL       ARMEnableInt  ; 0xc66c
        0x0000a41c:    e1a081a5    ....    MOV      r8,r5,LSR #3
        0x0000a420:    e59f0454    T...    LDR      r0,0xa87c
        0x0000a424:    e7d0a008    ....    LDRB     r10,[r0,r8]
        0x0000a428:    e205b007    ....    AND      r11,r5,#7
        0x0000a42c:    e59f0448    H...    LDR      r0,0xa87c
        0x0000a430:    e7d0900b    ....    LDRB     r9,[r0,r11]
        0x0000a434:    eb000887    ....    BL       ARMDisableInt  ; 0xc658
        0x0000a438:    e35700ff    ..W.    CMP      r7,#0xff
        0x0000a43c:    1a000002    ....    BNE      0xa44c
        0x0000a440:    e59f042c    ,...    LDR      r0,0xa874
        0x0000a444:    e5900000    ....    LDR      r0,[r0,#0]
        0x0000a448:    e5d0702d    -p..    LDRB     r7,[r0,#0x2d]
        0x0000a44c:    e59f0424    $...    LDR      r0,0xa878
        0x0000a450:    e7904107    .A..    LDR      r4,[r0,r7,LSL #2]
        0x0000a454:    e3540000    ..T.    CMP      r4,#0
        0x0000a458:    0a000045    E...    BEQ      0xa574
        0x0000a45c:    e3a00000    ....    MOV      r0,#0
        0x0000a460:    e59f1410    ....    LDR      r1,0xa878
        0x0000a464:    e7810107    ....    STR      r0,[r1,r7,LSL #2]
        0x0000a468:    e5d4002f    /...    LDRB     r0,[r4,#0x2f]
        0x0000a46c:    e59f140c    ....    LDR      r1,0xa880
        0x0000a470:    e7d10000    ....    LDRB     r0,[r1,r0]
        0x0000a474:    e5d41030    0...    LDRB     r1,[r4,#0x30]
        0x0000a478:    e1100001    ....    TST      r0,r1
        0x0000a47c:    0a000019    ....    BEQ      0xa4e8
        0x0000a480:    e5d4102f    /...    LDRB     r1,[r4,#0x2f]
        0x0000a484:    e59f23f4    .#..    LDR      r2,0xa880
        0x0000a488:    e0810002    ....    ADD      r0,r1,r2
        0x0000a48c:    e5d01000    ....    LDRB     r1,[r0,#0]
        0x0000a490:    e5d42030    0 ..    LDRB     r2,[r4,#0x30]
        0x0000a494:    e1d11002    ....    BICS     r1,r1,r2
        0x0000a498:    e5c01000    ....    STRB     r1,[r0,#0]
        0x0000a49c:    0a000000    ....    BEQ      0xa4a4
        0x0000a4a0:    ea000005    ....    B        0xa4bc
        0x0000a4a4:    e5d40031    1...    LDRB     r0,[r4,#0x31]
        0x0000a4a8:    e59f13d4    ....    LDR      r1,0xa884
        0x0000a4ac:    e5d11000    ....    LDRB     r1,[r1,#0]
        0x0000a4b0:    e1c10000    ....    BIC      r0,r1,r0
        0x0000a4b4:    e59f13c8    ....    LDR      r1,0xa884
        0x0000a4b8:    e5c10000    ....    STRB     r0,[r1,#0]
        0x0000a4bc:    e59f03c0    ....    LDR      r0,0xa884
        0x0000a4c0:    e5d00000    ....    LDRB     r0,[r0,#0]
        0x0000a4c4:    e180000a    ....    ORR      r0,r0,r10
        0x0000a4c8:    e59f13b4    ....    LDR      r1,0xa884
        0x0000a4cc:    e5c10000    ....    STRB     r0,[r1,#0]
        0x0000a4d0:    e59f03a8    ....    LDR      r0,0xa880
        0x0000a4d4:    e7d00008    ....    LDRB     r0,[r0,r8]
        0x0000a4d8:    e1800009    ....    ORR      r0,r0,r9
        0x0000a4dc:    e59f139c    ....    LDR      r1,0xa880
        0x0000a4e0:    e7c10008    ....    STRB     r0,[r1,r8]
        0x0000a4e4:    ea000017    ....    B        0xa548
        0x0000a4e8:    e594601c    .`..    LDR      r6,[r4,#0x1c]
        0x0000a4ec:    e3560000    ..V.    CMP      r6,#0
        0x0000a4f0:    0a000014    ....    BEQ      0xa548
        0x0000a4f4:    e5d4102f    /...    LDRB     r1,[r4,#0x2f]
        0x0000a4f8:    e0811006    ....    ADD      r1,r1,r6
        0x0000a4fc:    e2810008    ....    ADD      r0,r1,#8
        0x0000a500:    e5d11008    ....    LDRB     r1,[r1,#8]
        0x0000a504:    e5d42030    0 ..    LDRB     r2,[r4,#0x30]
        0x0000a508:    e1d11002    ....    BICS     r1,r1,r2
        0x0000a50c:    e5c01000    ....    STRB     r1,[r0,#0]
        0x0000a510:    0a000000    ....    BEQ      0xa518
        0x0000a514:    ea000003    ....    B        0xa528
        0x0000a518:    e5d60001    ....    LDRB     r0,[r6,#1]
        0x0000a51c:    e5d41031    1...    LDRB     r1,[r4,#0x31]
        0x0000a520:    e1c00001    ....    BIC      r0,r0,r1
        0x0000a524:    e5c60001    ....    STRB     r0,[r6,#1]
        0x0000a528:    e5d60001    ....    LDRB     r0,[r6,#1]
        0x0000a52c:    e180000a    ....    ORR      r0,r0,r10
        0x0000a530:    e5c60001    ....    STRB     r0,[r6,#1]
        0x0000a534:    e0860008    ....    ADD      r0,r6,r8
        0x0000a538:    e5d00008    ....    LDRB     r0,[r0,#8]
        0x0000a53c:    e1800009    ....    ORR      r0,r0,r9
        0x0000a540:    e0861008    ....    ADD      r1,r6,r8
        0x0000a544:    e5c10008    ....    STRB     r0,[r1,#8]
        0x0000a548:    e59f0328    (...    LDR      r0,0xa878
        0x0000a54c:    e7804105    .A..    STR      r4,[r0,r5,LSL #2]
        0x0000a550:    e5c4502d    -P..    STRB     r5,[r4,#0x2d]
        0x0000a554:    e5c4802f    /...    STRB     r8,[r4,#0x2f]
        0x0000a558:    e5c4b02e    ....    STRB     r11,[r4,#0x2e]
        0x0000a55c:    e5c4a031    1...    STRB     r10,[r4,#0x31]
        0x0000a560:    e5c49030    0...    STRB     r9,[r4,#0x30]
        0x0000a564:    eb000840    @...    BL       ARMEnableInt  ; 0xc66c
        0x0000a568:    ebfff7c3    ....    BL       OS_Sched  ; 0x847c
        0x0000a56c:    e3a00000    ....    MOV      r0,#0
        0x0000a570:    eaffff9c    ....    B        0xa3e8
        0x0000a574:    e3a00000    ....    MOV      r0,#0
        0x0000a578:    e59f12f8    ....    LDR      r1,0xa878
        0x0000a57c:    e7810105    ....    STR      r0,[r1,r5,LSL #2]
        0x0000a580:    eb000839    9...    BL       ARMEnableInt  ; 0xc66c
        0x0000a584:    e3a00029    )...    MOV      r0,#0x29
        0x0000a588:    eaffff96    ....    B        0xa3e8
    OSTaskCreate
        0x0000a58c:    e92d43fe    .C-.    STMFD    r13!,{r1-r9,r14}
        0x0000a590:    e1a06000    .`..    MOV      r6,r0
        0x0000a594:    e1a07001    .p..    MOV      r7,r1
        0x0000a598:    e1a08002    ....    MOV      r8,r2
        0x0000a59c:    e1a04003    .@..    MOV      r4,r3
        0x0000a5a0:    e354000c    ..T.    CMP      r4,#0xc
        0x0000a5a4:    9a000001    ....    BLS      0xa5b0
        0x0000a5a8:    e3a0002a    *...    MOV      r0,#0x2a
        0x0000a5ac:    e8bd83fe    ....    LDMFD    r13!,{r1-r9,pc}
        0x0000a5b0:    eb000828    (...    BL       ARMDisableInt  ; 0xc658
        0x0000a5b4:    e59f02bc    ....    LDR      r0,0xa878
        0x0000a5b8:    e7900104    ....    LDR      r0,[r0,r4,LSL #2]
        0x0000a5bc:    e3500000    ..P.    CMP      r0,#0
        0x0000a5c0:    1a000027    '...    BNE      0xa664
        0x0000a5c4:    e3a00001    ....    MOV      r0,#1
        0x0000a5c8:    e59f12a8    ....    LDR      r1,0xa878
        0x0000a5cc:    e7810104    ....    STR      r0,[r1,r4,LSL #2]
        0x0000a5d0:    eb000825    %...    BL       ARMEnableInt  ; 0xc66c
        0x0000a5d4:    e3a03000    .0..    MOV      r3,#0
        0x0000a5d8:    e1a02008    . ..    MOV      r2,r8
        0x0000a5dc:    e1a01007    ....    MOV      r1,r7
        0x0000a5e0:    e1a00006    ....    MOV      r0,r6
        0x0000a5e4:    eb000219    ....    BL       OSTaskStkInit  ; 0xae50
        0x0000a5e8:    e1a09000    ....    MOV      r9,r0
        0x0000a5ec:    e3a03000    .0..    MOV      r3,#0
        0x0000a5f0:    e3a02000    . ..    MOV      r2,#0
        0x0000a5f4:    e58d2000    . ..    STR      r2,[r13,#0]
        0x0000a5f8:    e1a01009    ....    MOV      r1,r9
        0x0000a5fc:    e1a00004    ....    MOV      r0,r4
        0x0000a600:    e98d000c    ....    STMIB    r13,{r2,r3}
        0x0000a604:    ebfff7c3    ....    BL       OS_TCBInit  ; 0x8518
        0x0000a608:    e1a05000    .P..    MOV      r5,r0
        0x0000a60c:    e3550000    ..U.    CMP      r5,#0
        0x0000a610:    1a00000c    ....    BNE      0xa648
        0x0000a614:    eb00080f    ....    BL       ARMDisableInt  ; 0xc658
        0x0000a618:    e59f0268    h...    LDR      r0,0xa888
        0x0000a61c:    e5d00000    ....    LDRB     r0,[r0,#0]
        0x0000a620:    e2800001    ....    ADD      r0,r0,#1
        0x0000a624:    e59f125c    \...    LDR      r1,0xa888
        0x0000a628:    e5c10000    ....    STRB     r0,[r1,#0]
        0x0000a62c:    eb00080e    ....    BL       ARMEnableInt  ; 0xc66c
        0x0000a630:    e59f0254    T...    LDR      r0,0xa88c
        0x0000a634:    e5d00000    ....    LDRB     r0,[r0,#0]
        0x0000a638:    e3500001    ..P.    CMP      r0,#1
        0x0000a63c:    1a000006    ....    BNE      0xa65c
        0x0000a640:    ebfff78d    ....    BL       OS_Sched  ; 0x847c
        0x0000a644:    ea000004    ....    B        0xa65c
        0x0000a648:    eb000802    ....    BL       ARMDisableInt  ; 0xc658
        0x0000a64c:    e3a00000    ....    MOV      r0,#0
        0x0000a650:    e59f1220     ...    LDR      r1,0xa878
        0x0000a654:    e7810104    ....    STR      r0,[r1,r4,LSL #2]
        0x0000a658:    eb000803    ....    BL       ARMEnableInt  ; 0xc66c
        0x0000a65c:    e1a00005    ....    MOV      r0,r5
        0x0000a660:    eaffffd1    ....    B        0xa5ac
        0x0000a664:    eb000800    ....    BL       ARMEnableInt  ; 0xc66c
        0x0000a668:    e3a00028    (...    MOV      r0,#0x28
        0x0000a66c:    eaffffce    ....    B        0xa5ac
    OSTaskDel
        0x0000a670:    e92d40f8    .@-.    STMFD    r13!,{r3-r7,r14}
        0x0000a674:    e1a05000    .P..    MOV      r5,r0
        0x0000a678:    e59f01ec    ....    LDR      r0,0xa86c
        0x0000a67c:    e5d00000    ....    LDRB     r0,[r0,#0]
        0x0000a680:    e3500000    ..P.    CMP      r0,#0
        0x0000a684:    0a000001    ....    BEQ      0xa690
        0x0000a688:    e3a0003f    ?...    MOV      r0,#0x3f
        0x0000a68c:    e8bd80f8    ....    LDMFD    r13!,{r3-r7,pc}
        0x0000a690:    e355000c    ..U.    CMP      r5,#0xc
        0x0000a694:    1a000001    ....    BNE      0xa6a0
        0x0000a698:    e3a0003d    =...    MOV      r0,#0x3d
        0x0000a69c:    eafffffa    ....    B        0xa68c
        0x0000a6a0:    e355000c    ..U.    CMP      r5,#0xc
        0x0000a6a4:    3a000003    ...:    BCC      0xa6b8
        0x0000a6a8:    e35500ff    ..U.    CMP      r5,#0xff
        0x0000a6ac:    0a000001    ....    BEQ      0xa6b8
        0x0000a6b0:    e3a0002a    *...    MOV      r0,#0x2a
        0x0000a6b4:    eafffff4    ....    B        0xa68c
        0x0000a6b8:    eb0007e6    ....    BL       ARMDisableInt  ; 0xc658
        0x0000a6bc:    e35500ff    ..U.    CMP      r5,#0xff
        0x0000a6c0:    1a000002    ....    BNE      0xa6d0
        0x0000a6c4:    e59f01a8    ....    LDR      r0,0xa874
        0x0000a6c8:    e5900000    ....    LDR      r0,[r0,#0]
        0x0000a6cc:    e5d0502d    -P..    LDRB     r5,[r0,#0x2d]
        0x0000a6d0:    e59f01a0    ....    LDR      r0,0xa878
        0x0000a6d4:    e7904105    .A..    LDR      r4,[r0,r5,LSL #2]
        0x0000a6d8:    e3540000    ..T.    CMP      r4,#0
        0x0000a6dc:    0a00005f    _...    BEQ      0xa860
        0x0000a6e0:    e5d4102f    /...    LDRB     r1,[r4,#0x2f]
        0x0000a6e4:    e59f2194    .!..    LDR      r2,0xa880
        0x0000a6e8:    e0810002    ....    ADD      r0,r1,r2
        0x0000a6ec:    e5d01000    ....    LDRB     r1,[r0,#0]
        0x0000a6f0:    e5d42030    0 ..    LDRB     r2,[r4,#0x30]
        0x0000a6f4:    e1d11002    ....    BICS     r1,r1,r2
        0x0000a6f8:    e5c01000    ....    STRB     r1,[r0,#0]
        0x0000a6fc:    0a000000    ....    BEQ      0xa704
        0x0000a700:    ea000005    ....    B        0xa71c
        0x0000a704:    e5d40031    1...    LDRB     r0,[r4,#0x31]
        0x0000a708:    e59f1174    t...    LDR      r1,0xa884
        0x0000a70c:    e5d11000    ....    LDRB     r1,[r1,#0]
        0x0000a710:    e1c10000    ....    BIC      r0,r1,r0
        0x0000a714:    e59f1168    h...    LDR      r1,0xa884
        0x0000a718:    e5c10000    ....    STRB     r0,[r1,#0]
        0x0000a71c:    e594601c    .`..    LDR      r6,[r4,#0x1c]
        0x0000a720:    e3560000    ..V.    CMP      r6,#0
        0x0000a724:    0a00000c    ....    BEQ      0xa75c
        0x0000a728:    e5d4102f    /...    LDRB     r1,[r4,#0x2f]
        0x0000a72c:    e0811006    ....    ADD      r1,r1,r6
        0x0000a730:    e2810008    ....    ADD      r0,r1,#8
        0x0000a734:    e5d11008    ....    LDRB     r1,[r1,#8]
        0x0000a738:    e5d42030    0 ..    LDRB     r2,[r4,#0x30]
        0x0000a73c:    e1d11002    ....    BICS     r1,r1,r2
        0x0000a740:    e5c01000    ....    STRB     r1,[r0,#0]
        0x0000a744:    0a000000    ....    BEQ      0xa74c
        0x0000a748:    ea000003    ....    B        0xa75c
        0x0000a74c:    e5d60001    ....    LDRB     r0,[r6,#1]
        0x0000a750:    e5d41031    1...    LDRB     r1,[r4,#0x31]
        0x0000a754:    e1c00001    ....    BIC      r0,r0,r1
        0x0000a758:    e5c60001    ....    STRB     r0,[r6,#1]
        0x0000a75c:    e5947024    $p..    LDR      r7,[r4,#0x24]
        0x0000a760:    e3570000    ..W.    CMP      r7,#0
        0x0000a764:    0a000001    ....    BEQ      0xa770
        0x0000a768:    e1a00007    ....    MOV      r0,r7
        0x0000a76c:    eb00023a    :...    BL       OS_FlagUnlink  ; 0xb05c
        0x0000a770:    e3a00000    ....    MOV      r0,#0
        0x0000a774:    e1c402ba    ....    STRH     r0,[r4,#0x2a]
        0x0000a778:    e3a00000    ....    MOV      r0,#0
        0x0000a77c:    e5c4002c    ,...    STRB     r0,[r4,#0x2c]
        0x0000a780:    e59f0108    ....    LDR      r0,0xa890
        0x0000a784:    e5d00000    ....    LDRB     r0,[r0,#0]
        0x0000a788:    e35000ff    ..P.    CMP      r0,#0xff
        0x0000a78c:    2a000004    ...*    BCS      0xa7a4
        0x0000a790:    e59f00f8    ....    LDR      r0,0xa890
        0x0000a794:    e5d00000    ....    LDRB     r0,[r0,#0]
        0x0000a798:    e2800001    ....    ADD      r0,r0,#1
        0x0000a79c:    e59f10ec    ....    LDR      r1,0xa890
        0x0000a7a0:    e5c10000    ....    STRB     r0,[r1,#0]
        0x0000a7a4:    eb0007b0    ....    BL       ARMEnableInt  ; 0xc66c
        0x0000a7a8:    ebfff987    ....    BL       OS_Dummy  ; 0x8dcc
        0x0000a7ac:    eb0007a9    ....    BL       ARMDisableInt  ; 0xc658
        0x0000a7b0:    e59f00d8    ....    LDR      r0,0xa890
        0x0000a7b4:    e5d00000    ....    LDRB     r0,[r0,#0]
        0x0000a7b8:    e3500000    ..P.    CMP      r0,#0
        0x0000a7bc:    0a000004    ....    BEQ      0xa7d4
        0x0000a7c0:    e59f00c8    ....    LDR      r0,0xa890
        0x0000a7c4:    e5d00000    ....    LDRB     r0,[r0,#0]
        0x0000a7c8:    e2400001    ..@.    SUB      r0,r0,#1
        0x0000a7cc:    e59f10bc    ....    LDR      r1,0xa890
        0x0000a7d0:    e5c10000    ....    STRB     r0,[r1,#0]
        0x0000a7d4:    e1a00004    ....    MOV      r0,r4
        0x0000a7d8:    eb0001e4    ....    BL       OSTaskDelHook  ; 0xaf70
        0x0000a7dc:    e59f00a4    ....    LDR      r0,0xa888
        0x0000a7e0:    e5d00000    ....    LDRB     r0,[r0,#0]
        0x0000a7e4:    e2400001    ..@.    SUB      r0,r0,#1
        0x0000a7e8:    e59f1098    ....    LDR      r1,0xa888
        0x0000a7ec:    e5c10000    ....    STRB     r0,[r1,#0]
        0x0000a7f0:    e3a00000    ....    MOV      r0,#0
        0x0000a7f4:    e59f107c    |...    LDR      r1,0xa878
        0x0000a7f8:    e7810105    ....    STR      r0,[r1,r5,LSL #2]
        0x0000a7fc:    e5940018    ....    LDR      r0,[r4,#0x18]
        0x0000a800:    e3500000    ..P.    CMP      r0,#0
        0x0000a804:    1a000006    ....    BNE      0xa824
        0x0000a808:    e3a00000    ....    MOV      r0,#0
        0x0000a80c:    e5941014    ....    LDR      r1,[r4,#0x14]
        0x0000a810:    e5810018    ....    STR      r0,[r1,#0x18]
        0x0000a814:    e59f1078    x...    LDR      r1,0xa894
        0x0000a818:    e5940014    ....    LDR      r0,[r4,#0x14]
        0x0000a81c:    e5810000    ....    STR      r0,[r1,#0]
        0x0000a820:    ea000005    ....    B        0xa83c
        0x0000a824:    e2841014    ....    ADD      r1,r4,#0x14
        0x0000a828:    e8910003    ....    LDMIA    r1,{r0,r1}
        0x0000a82c:    e5810014    ....    STR      r0,[r1,#0x14]
        0x0000a830:    e5940018    ....    LDR      r0,[r4,#0x18]
        0x0000a834:    e5941014    ....    LDR      r1,[r4,#0x14]
        0x0000a838:    e5810018    ....    STR      r0,[r1,#0x18]
        0x0000a83c:    e59f0054    T...    LDR      r0,0xa898
        0x0000a840:    e5900000    ....    LDR      r0,[r0,#0]
        0x0000a844:    e5840014    ....    STR      r0,[r4,#0x14]
        0x0000a848:    e59f0048    H...    LDR      r0,0xa898
        0x0000a84c:    e5804000    .@..    STR      r4,[r0,#0]
        0x0000a850:    eb000785    ....    BL       ARMEnableInt  ; 0xc66c
        0x0000a854:    ebfff708    ....    BL       OS_Sched  ; 0x847c
        0x0000a858:    e3a00000    ....    MOV      r0,#0
        0x0000a85c:    eaffff8a    ....    B        0xa68c
        0x0000a860:    eb000781    ....    BL       ARMEnableInt  ; 0xc66c
        0x0000a864:    e3a0003c    <...    MOV      r0,#0x3c
        0x0000a868:    eaffff87    ....    B        0xa68c
    $d
        0x0000a86c:    0000f9a4    ....    DCD    63908
        0x0000a870:    0000f8e8    ....    DCD    63720
        0x0000a874:    000101b4    ....    DCD    65972
        0x0000a878:    000101c4    ....    DCD    65988
        0x0000a87c:    0000c6a8    ....    DCD    50856
        0x0000a880:    0000f9aa    ....    DCD    63914
        0x0000a884:    0000f9a9    ....    DCD    63913
        0x0000a888:    0000f9ad    ....    DCD    63917
        0x0000a88c:    0000f9ac    ....    DCD    63916
        0x0000a890:    0000f9a6    ....    DCD    63910
        0x0000a894:    000101c0    ....    DCD    65984
        0x0000a898:    000101b8    ....    DCD    65976
    OSTaskDelReq
    $a
        0x0000a89c:    e92d40f8    .@-.    STMFD    r13!,{r3-r7,r14}
        0x0000a8a0:    e1a04000    .@..    MOV      r4,r0
        0x0000a8a4:    e354000c    ..T.    CMP      r4,#0xc
        0x0000a8a8:    1a000001    ....    BNE      0xa8b4
        0x0000a8ac:    e3a0003d    =...    MOV      r0,#0x3d
        0x0000a8b0:    e8bd80f8    ....    LDMFD    r13!,{r3-r7,pc}
        0x0000a8b4:    e354000c    ..T.    CMP      r4,#0xc
        0x0000a8b8:    3a000003    ...:    BCC      0xa8cc
        0x0000a8bc:    e35400ff    ..T.    CMP      r4,#0xff
        0x0000a8c0:    0a000001    ....    BEQ      0xa8cc
        0x0000a8c4:    e3a0002a    *...    MOV      r0,#0x2a
        0x0000a8c8:    eafffff8    ....    B        0xa8b0
        0x0000a8cc:    e35400ff    ..T.    CMP      r4,#0xff
        0x0000a8d0:    1a000006    ....    BNE      0xa8f0
        0x0000a8d4:    eb00075f    _...    BL       ARMDisableInt  ; 0xc658
        0x0000a8d8:    e51f006c    l...    LDR      r0,0xa874
        0x0000a8dc:    e5900000    ....    LDR      r0,[r0,#0]
        0x0000a8e0:    e5d07032    2p..    LDRB     r7,[r0,#0x32]
        0x0000a8e4:    eb000760    `...    BL       ARMEnableInt  ; 0xc66c
        0x0000a8e8:    e1a00007    ....    MOV      r0,r7
        0x0000a8ec:    eaffffef    ....    B        0xa8b0
        0x0000a8f0:    eb000758    X...    BL       ARMDisableInt  ; 0xc658
        0x0000a8f4:    e51f0084    ....    LDR      r0,0xa878
        0x0000a8f8:    e7906104    .a..    LDR      r6,[r0,r4,LSL #2]
        0x0000a8fc:    e3560000    ..V.    CMP      r6,#0
        0x0000a900:    0a000003    ....    BEQ      0xa914
        0x0000a904:    e3a0003e    >...    MOV      r0,#0x3e
        0x0000a908:    e5c60032    2...    STRB     r0,[r6,#0x32]
        0x0000a90c:    e3a05000    .P..    MOV      r5,#0
        0x0000a910:    ea000000    ....    B        0xa918
        0x0000a914:    e3a0500b    .P..    MOV      r5,#0xb
        0x0000a918:    eb000753    S...    BL       ARMEnableInt  ; 0xc66c
        0x0000a91c:    e1a00005    ....    MOV      r0,r5
        0x0000a920:    eaffffe2    ....    B        0xa8b0
    OSTaskResume
        0x0000a924:    e92d4038    8@-.    STMFD    r13!,{r3-r5,r14}
        0x0000a928:    e1a05000    .P..    MOV      r5,r0
        0x0000a92c:    e355000c    ..U.    CMP      r5,#0xc
        0x0000a930:    3a000001    ...:    BCC      0xa93c
        0x0000a934:    e3a0002a    *...    MOV      r0,#0x2a
        0x0000a938:    e8bd8038    8...    LDMFD    r13!,{r3-r5,pc}
        0x0000a93c:    eb000745    E...    BL       ARMDisableInt  ; 0xc658
        0x0000a940:    e51f00d0    ....    LDR      r0,0xa878
        0x0000a944:    e7904105    .A..    LDR      r4,[r0,r5,LSL #2]
        0x0000a948:    e3540000    ..T.    CMP      r4,#0
        0x0000a94c:    1a000002    ....    BNE      0xa95c
        0x0000a950:    eb000745    E...    BL       ARMEnableInt  ; 0xc66c
        0x0000a954:    e3a00064    d...    MOV      r0,#0x64
        0x0000a958:    eafffff6    ....    B        0xa938
        0x0000a95c:    e5d4002c    ,...    LDRB     r0,[r4,#0x2c]
        0x0000a960:    e3100008    ....    TST      r0,#8
        0x0000a964:    0a000019    ....    BEQ      0xa9d0
        0x0000a968:    e5d4002c    ,...    LDRB     r0,[r4,#0x2c]
        0x0000a96c:    e3d00008    ....    BICS     r0,r0,#8
        0x0000a970:    e5c4002c    ,...    STRB     r0,[r4,#0x2c]
        0x0000a974:    1a000012    ....    BNE      0xa9c4
        0x0000a978:    e1d402ba    ....    LDRH     r0,[r4,#0x2a]
        0x0000a97c:    e3500000    ..P.    CMP      r0,#0
        0x0000a980:    1a00000f    ....    BNE      0xa9c4
        0x0000a984:    e5d40031    1...    LDRB     r0,[r4,#0x31]
        0x0000a988:    e51f110c    ....    LDR      r1,0xa884
        0x0000a98c:    e5d11000    ....    LDRB     r1,[r1,#0]
        0x0000a990:    e1800001    ....    ORR      r0,r0,r1
        0x0000a994:    e51f1118    ....    LDR      r1,0xa884
        0x0000a998:    e5c10000    ....    STRB     r0,[r1,#0]
        0x0000a99c:    e5d4102f    /...    LDRB     r1,[r4,#0x2f]
        0x0000a9a0:    e51f2128    (!..    LDR      r2,0xa880
        0x0000a9a4:    e0810002    ....    ADD      r0,r1,r2
        0x0000a9a8:    e5d01000    ....    LDRB     r1,[r0,#0]
        0x0000a9ac:    e5d42030    0 ..    LDRB     r2,[r4,#0x30]
        0x0000a9b0:    e1811002    ....    ORR      r1,r1,r2
        0x0000a9b4:    e5c01000    ....    STRB     r1,[r0,#0]
        0x0000a9b8:    eb00072b    +...    BL       ARMEnableInt  ; 0xc66c
        0x0000a9bc:    ebfff6ae    ....    BL       OS_Sched  ; 0x847c
        0x0000a9c0:    ea000000    ....    B        0xa9c8
        0x0000a9c4:    eb000728    (...    BL       ARMEnableInt  ; 0xc66c
        0x0000a9c8:    e3a00000    ....    MOV      r0,#0
        0x0000a9cc:    eaffffd9    ....    B        0xa938
        0x0000a9d0:    eb000725    %...    BL       ARMEnableInt  ; 0xc66c
        0x0000a9d4:    e3a00065    e...    MOV      r0,#0x65
        0x0000a9d8:    eaffffd6    ....    B        0xa938
    OSTaskStkChk
        0x0000a9dc:    e92d43f8    .C-.    STMFD    r13!,{r3-r9,r14}
        0x0000a9e0:    e1a04000    .@..    MOV      r4,r0
        0x0000a9e4:    e1a05001    .P..    MOV      r5,r1
        0x0000a9e8:    e354000c    ..T.    CMP      r4,#0xc
        0x0000a9ec:    9a000003    ....    BLS      0xaa00
        0x0000a9f0:    e35400ff    ..T.    CMP      r4,#0xff
        0x0000a9f4:    0a000001    ....    BEQ      0xaa00
        0x0000a9f8:    e3a0002a    *...    MOV      r0,#0x2a
        0x0000a9fc:    e8bd83f8    ....    LDMFD    r13!,{r3-r9,pc}
        0x0000aa00:    e3a00000    ....    MOV      r0,#0
        0x0000aa04:    e5850000    ....    STR      r0,[r5,#0]
        0x0000aa08:    e3a00000    ....    MOV      r0,#0
        0x0000aa0c:    e5850004    ....    STR      r0,[r5,#4]
        0x0000aa10:    eb000710    ....    BL       ARMDisableInt  ; 0xc658
        0x0000aa14:    e35400ff    ..T.    CMP      r4,#0xff
        0x0000aa18:    1a000002    ....    BNE      0xaa28
        0x0000aa1c:    e51f01b0    ....    LDR      r0,0xa874
        0x0000aa20:    e5900000    ....    LDR      r0,[r0,#0]
        0x0000aa24:    e5d0402d    -@..    LDRB     r4,[r0,#0x2d]
        0x0000aa28:    e51f01b8    ....    LDR      r0,0xa878
        0x0000aa2c:    e7906104    .a..    LDR      r6,[r0,r4,LSL #2]
        0x0000aa30:    e3560000    ..V.    CMP      r6,#0
        0x0000aa34:    1a000002    ....    BNE      0xaa44
        0x0000aa38:    eb00070b    ....    BL       ARMEnableInt  ; 0xc66c
        0x0000aa3c:    e3a0000b    ....    MOV      r0,#0xb
        0x0000aa40:    eaffffed    ....    B        0xa9fc
        0x0000aa44:    e1d601b0    ....    LDRH     r0,[r6,#0x10]
        0x0000aa48:    e3100001    ....    TST      r0,#1
        0x0000aa4c:    1a000002    ....    BNE      0xaa5c
        0x0000aa50:    eb000705    ....    BL       ARMEnableInt  ; 0xc66c
        0x0000aa54:    e3a00082    ....    MOV      r0,#0x82
        0x0000aa58:    eaffffe7    ....    B        0xa9fc
        0x0000aa5c:    e3a07000    .p..    MOV      r7,#0
        0x0000aa60:    e596900c    ....    LDR      r9,[r6,#0xc]
        0x0000aa64:    e5968008    ....    LDR      r8,[r6,#8]
        0x0000aa68:    eb0006ff    ....    BL       ARMEnableInt  ; 0xc66c
        0x0000aa6c:    e1a00000    ....    NOP      
        0x0000aa70:    e4981004    ....    LDR      r1,[r8],#4
        0x0000aa74:    e3510000    ..Q.    CMP      r1,#0
        0x0000aa78:    1a000001    ....    BNE      0xaa84
        0x0000aa7c:    e2877001    .p..    ADD      r7,r7,#1
        0x0000aa80:    eafffffa    ....    B        0xaa70
        0x0000aa84:    e1a00107    ....    MOV      r0,r7,LSL #2
        0x0000aa88:    e5850000    ....    STR      r0,[r5,#0]
        0x0000aa8c:    e0490007    ..I.    SUB      r0,r9,r7
        0x0000aa90:    e1a00100    ....    MOV      r0,r0,LSL #2
        0x0000aa94:    e5850004    ....    STR      r0,[r5,#4]
        0x0000aa98:    e3a00000    ....    MOV      r0,#0
        0x0000aa9c:    eaffffd6    ....    B        0xa9fc
    OSTaskSuspend
        0x0000aaa0:    e92d4070    p@-.    STMFD    r13!,{r4-r6,r14}
        0x0000aaa4:    e1a04000    .@..    MOV      r4,r0
        0x0000aaa8:    e354000c    ..T.    CMP      r4,#0xc
        0x0000aaac:    1a000001    ....    BNE      0xaab8
        0x0000aab0:    e3a0005b    [...    MOV      r0,#0x5b
        0x0000aab4:    e8bd8070    p...    LDMFD    r13!,{r4-r6,pc}
        0x0000aab8:    e354000c    ..T.    CMP      r4,#0xc
        0x0000aabc:    3a000003    ...:    BCC      0xaad0
        0x0000aac0:    e35400ff    ..T.    CMP      r4,#0xff
        0x0000aac4:    0a000001    ....    BEQ      0xaad0
        0x0000aac8:    e3a0002a    *...    MOV      r0,#0x2a
        0x0000aacc:    eafffff8    ....    B        0xaab4
        0x0000aad0:    eb0006e0    ....    BL       ARMDisableInt  ; 0xc658
        0x0000aad4:    e35400ff    ..T.    CMP      r4,#0xff
        0x0000aad8:    1a000004    ....    BNE      0xaaf0
        0x0000aadc:    e51f0270    p...    LDR      r0,0xa874
        0x0000aae0:    e5900000    ....    LDR      r0,[r0,#0]
        0x0000aae4:    e5d0402d    -@..    LDRB     r4,[r0,#0x2d]
        0x0000aae8:    e3a06001    .`..    MOV      r6,#1
        0x0000aaec:    ea000007    ....    B        0xab10
        0x0000aaf0:    e51f0284    ....    LDR      r0,0xa874
        0x0000aaf4:    e5900000    ....    LDR      r0,[r0,#0]
        0x0000aaf8:    e5d0002d    -...    LDRB     r0,[r0,#0x2d]
        0x0000aafc:    e1500004    ..P.    CMP      r0,r4
        0x0000ab00:    1a000001    ....    BNE      0xab0c
        0x0000ab04:    e3a06001    .`..    MOV      r6,#1
        0x0000ab08:    ea000000    ....    B        0xab10
        0x0000ab0c:    e3a06000    .`..    MOV      r6,#0
        0x0000ab10:    e51f02a0    ....    LDR      r0,0xa878
        0x0000ab14:    e7905104    .Q..    LDR      r5,[r0,r4,LSL #2]
        0x0000ab18:    e3550000    ..U.    CMP      r5,#0
        0x0000ab1c:    1a000002    ....    BNE      0xab2c
        0x0000ab20:    eb0006d1    ....    BL       ARMEnableInt  ; 0xc66c
        0x0000ab24:    e3a0005a    Z...    MOV      r0,#0x5a
        0x0000ab28:    eaffffe1    ....    B        0xaab4
        0x0000ab2c:    e5d5102f    /...    LDRB     r1,[r5,#0x2f]
        0x0000ab30:    e51f22b8    ."..    LDR      r2,0xa880
        0x0000ab34:    e0810002    ....    ADD      r0,r1,r2
        0x0000ab38:    e5d01000    ....    LDRB     r1,[r0,#0]
        0x0000ab3c:    e5d52030    0 ..    LDRB     r2,[r5,#0x30]
        0x0000ab40:    e1d11002    ....    BICS     r1,r1,r2
        0x0000ab44:    e5c01000    ....    STRB     r1,[r0,#0]
        0x0000ab48:    0a000000    ....    BEQ      0xab50
        0x0000ab4c:    ea000005    ....    B        0xab68
        0x0000ab50:    e5d50031    1...    LDRB     r0,[r5,#0x31]
        0x0000ab54:    e51f12d8    ....    LDR      r1,0xa884
        0x0000ab58:    e5d11000    ....    LDRB     r1,[r1,#0]
        0x0000ab5c:    e1c10000    ....    BIC      r0,r1,r0
        0x0000ab60:    e51f12e4    ....    LDR      r1,0xa884
        0x0000ab64:    e5c10000    ....    STRB     r0,[r1,#0]
        0x0000ab68:    e5d5002c    ,...    LDRB     r0,[r5,#0x2c]
        0x0000ab6c:    e3800008    ....    ORR      r0,r0,#8
        0x0000ab70:    e5c5002c    ,...    STRB     r0,[r5,#0x2c]
        0x0000ab74:    eb0006bc    ....    BL       ARMEnableInt  ; 0xc66c
        0x0000ab78:    e3560001    ..V.    CMP      r6,#1
        0x0000ab7c:    1a000000    ....    BNE      0xab84
        0x0000ab80:    ebfff63d    =...    BL       OS_Sched  ; 0x847c
        0x0000ab84:    e3a00000    ....    MOV      r0,#0
        0x0000ab88:    eaffffc9    ....    B        0xaab4
    OSTaskQuery
        0x0000ab8c:    e92d4070    p@-.    STMFD    r13!,{r4-r6,r14}
        0x0000ab90:    e1a04000    .@..    MOV      r4,r0
        0x0000ab94:    e1a05001    .P..    MOV      r5,r1
        0x0000ab98:    e354000c    ..T.    CMP      r4,#0xc
        0x0000ab9c:    9a000003    ....    BLS      0xabb0
        0x0000aba0:    e35400ff    ..T.    CMP      r4,#0xff
        0x0000aba4:    0a000001    ....    BEQ      0xabb0
        0x0000aba8:    e3a0002a    *...    MOV      r0,#0x2a
        0x0000abac:    e8bd8070    p...    LDMFD    r13!,{r4-r6,pc}
        0x0000abb0:    eb0006a8    ....    BL       ARMDisableInt  ; 0xc658
        0x0000abb4:    e35400ff    ..T.    CMP      r4,#0xff
        0x0000abb8:    1a000002    ....    BNE      0xabc8
        0x0000abbc:    e51f0350    P...    LDR      r0,0xa874
        0x0000abc0:    e5900000    ....    LDR      r0,[r0,#0]
        0x0000abc4:    e5d0402d    -@..    LDRB     r4,[r0,#0x2d]
        0x0000abc8:    e51f0358    X...    LDR      r0,0xa878
        0x0000abcc:    e7906104    .a..    LDR      r6,[r0,r4,LSL #2]
        0x0000abd0:    e3560000    ..V.    CMP      r6,#0
        0x0000abd4:    1a000002    ....    BNE      0xabe4
        0x0000abd8:    eb0006a3    ....    BL       ARMEnableInt  ; 0xc66c
        0x0000abdc:    e3a00029    )...    MOV      r0,#0x29
        0x0000abe0:    eafffff1    ....    B        0xabac
        0x0000abe4:    e3a02034    4 ..    MOV      r2,#0x34
        0x0000abe8:    e1a01006    ....    MOV      r1,r6
        0x0000abec:    e1a00005    ....    MOV      r0,r5
        0x0000abf0:    eb000184    ....    BL       __rt_memcpy_w  ; 0xb208
        0x0000abf4:    eb00069c    ....    BL       ARMEnableInt  ; 0xc66c
        0x0000abf8:    e3a00000    ....    MOV      r0,#0
        0x0000abfc:    eaffffea    ....    B        0xabac
    OSTimeDly
        0x0000ac00:    e92d4010    .@-.    STMFD    r13!,{r4,r14}
        0x0000ac04:    e1a04000    .@..    MOV      r4,r0
        0x0000ac08:    e3540000    ..T.    CMP      r4,#0
        0x0000ac0c:    0a00001a    ....    BEQ      0xac7c
        0x0000ac10:    eb000690    ....    BL       ARMDisableInt  ; 0xc658
        0x0000ac14:    e51f13a8    ....    LDR      r1,0xa874
        0x0000ac18:    e5911000    ....    LDR      r1,[r1,#0]
        0x0000ac1c:    e5d1102f    /...    LDRB     r1,[r1,#0x2f]
        0x0000ac20:    e51f23a8    .#..    LDR      r2,0xa880
        0x0000ac24:    e0810002    ....    ADD      r0,r1,r2
        0x0000ac28:    e5d01000    ....    LDRB     r1,[r0,#0]
        0x0000ac2c:    e51f23c0    .#..    LDR      r2,0xa874
        0x0000ac30:    e5922000    . ..    LDR      r2,[r2,#0]
        0x0000ac34:    e5d22030    0 ..    LDRB     r2,[r2,#0x30]
        0x0000ac38:    e1d11002    ....    BICS     r1,r1,r2
        0x0000ac3c:    e5c01000    ....    STRB     r1,[r0,#0]
        0x0000ac40:    0a000000    ....    BEQ      0xac48
        0x0000ac44:    ea000007    ....    B        0xac68
        0x0000ac48:    e51f03dc    ....    LDR      r0,0xa874
        0x0000ac4c:    e5900000    ....    LDR      r0,[r0,#0]
        0x0000ac50:    e5d00031    1...    LDRB     r0,[r0,#0x31]
        0x0000ac54:    e51f13d8    ....    LDR      r1,0xa884
        0x0000ac58:    e5d11000    ....    LDRB     r1,[r1,#0]
        0x0000ac5c:    e1c10000    ....    BIC      r0,r1,r0
        0x0000ac60:    e51f13e4    ....    LDR      r1,0xa884
        0x0000ac64:    e5c10000    ....    STRB     r0,[r1,#0]
        0x0000ac68:    e51f03fc    ....    LDR      r0,0xa874
        0x0000ac6c:    e5900000    ....    LDR      r0,[r0,#0]
        0x0000ac70:    e1c042ba    .B..    STRH     r4,[r0,#0x2a]
        0x0000ac74:    eb00067c    |...    BL       ARMEnableInt  ; 0xc66c
        0x0000ac78:    ebfff5ff    ....    BL       OS_Sched  ; 0x847c
        0x0000ac7c:    e8bd8010    ....    LDMFD    r13!,{r4,pc}
    OSTimeDlyHMSM
        0x0000ac80:    e92d43f8    .C-.    STMFD    r13!,{r3-r9,r14}
        0x0000ac84:    e1a09000    ....    MOV      r9,r0
        0x0000ac88:    e1a05001    .P..    MOV      r5,r1
        0x0000ac8c:    e1a06002    .`..    MOV      r6,r2
        0x0000ac90:    e1a07003    .p..    MOV      r7,r3
        0x0000ac94:    e1890005    ....    ORR      r0,r9,r5
        0x0000ac98:    e1800006    ....    ORR      r0,r0,r6
        0x0000ac9c:    e1900007    ....    ORRS     r0,r0,r7
        0x0000aca0:    0a00002c    ,...    BEQ      0xad58
        0x0000aca4:    e355003b    ;.U.    CMP      r5,#0x3b
        0x0000aca8:    9a000001    ....    BLS      0xacb4
        0x0000acac:    e3a00051    Q...    MOV      r0,#0x51
        0x0000acb0:    e8bd83f8    ....    LDMFD    r13!,{r3-r9,pc}
        0x0000acb4:    e356003b    ;.V.    CMP      r6,#0x3b
        0x0000acb8:    9a000001    ....    BLS      0xacc4
        0x0000acbc:    e3a00052    R...    MOV      r0,#0x52
        0x0000acc0:    eafffffa    ....    B        0xacb0
        0x0000acc4:    e257cfc0    ..W.    SUBS     r12,r7,#0x300
        0x0000acc8:    225cc0e7    ..\"    SUBCSS   r12,r12,#0xe7
        0x0000accc:    9a000001    ....    BLS      0xacd8
        0x0000acd0:    e3a00053    S...    MOV      r0,#0x53
        0x0000acd4:    eafffff5    ....    B        0xacb0
        0x0000acd8:    e3a00019    ....    MOV      r0,#0x19
        0x0000acdc:    e0020790    ....    MUL      r2,r0,r7
        0x0000ace0:    e3a00f64    d...    MOV      r0,#0x190
        0x0000ace4:    e0801182    ....    ADD      r1,r0,r2,LSL #3
        0x0000ace8:    e3a00ffa    ....    MOV      r0,#0x3e8
        0x0000acec:    eb000160    `...    BL       __rt_udiv  ; 0xb274
        0x0000acf0:    e3a01ee1    ....    MOV      r1,#0xe10
        0x0000acf4:    e0020991    ....    MUL      r2,r1,r9
        0x0000acf8:    e0651205    ..e.    RSB      r1,r5,r5,LSL #4
        0x0000acfc:    e0821101    ....    ADD      r1,r2,r1,LSL #2
        0x0000ad00:    e0811006    ....    ADD      r1,r1,r6
        0x0000ad04:    e3a02019    . ..    MOV      r2,#0x19
        0x0000ad08:    e0010192    ....    MUL      r1,r2,r1
        0x0000ad0c:    e0804181    .A..    ADD      r4,r0,r1,LSL #3
        0x0000ad10:    e1a08824    $...    MOV      r8,r4,LSR #16
        0x0000ad14:    e1a04804    .H..    MOV      r4,r4,LSL #16
        0x0000ad18:    e1a04824    $H..    MOV      r4,r4,LSR #16
        0x0000ad1c:    e1a00004    ....    MOV      r0,r4
        0x0000ad20:    ebffffb6    ....    BL       OSTimeDly  ; 0xac00
        0x0000ad24:    e1a00000    ....    NOP      
        0x0000ad28:    e3580000    ..X.    CMP      r8,#0
        0x0000ad2c:    0a000007    ....    BEQ      0xad50
        0x0000ad30:    e3a00c80    ....    MOV      r0,#0x8000
        0x0000ad34:    ebffffb1    ....    BL       OSTimeDly  ; 0xac00
        0x0000ad38:    e3a00c80    ....    MOV      r0,#0x8000
        0x0000ad3c:    ebffffaf    ....    BL       OSTimeDly  ; 0xac00
        0x0000ad40:    e2480001    ..H.    SUB      r0,r8,#1
        0x0000ad44:    e1a08800    ....    MOV      r8,r0,LSL #16
        0x0000ad48:    e1a08828    (...    MOV      r8,r8,LSR #16
        0x0000ad4c:    eafffff5    ....    B        0xad28
        0x0000ad50:    e3a00000    ....    MOV      r0,#0
        0x0000ad54:    eaffffd5    ....    B        0xacb0
        0x0000ad58:    e3a00054    T...    MOV      r0,#0x54
        0x0000ad5c:    eaffffd3    ....    B        0xacb0
    OSTimeDlyResume
        0x0000ad60:    e92d4038    8@-.    STMFD    r13!,{r3-r5,r14}
        0x0000ad64:    e1a05000    .P..    MOV      r5,r0
        0x0000ad68:    e355000c    ..U.    CMP      r5,#0xc
        0x0000ad6c:    3a000001    ...:    BCC      0xad78
        0x0000ad70:    e3a0002a    *...    MOV      r0,#0x2a
        0x0000ad74:    e8bd8038    8...    LDMFD    r13!,{r3-r5,pc}
        0x0000ad78:    eb000636    6...    BL       ARMDisableInt  ; 0xc658
        0x0000ad7c:    e51f050c    ....    LDR      r0,0xa878
        0x0000ad80:    e7904105    .A..    LDR      r4,[r0,r5,LSL #2]
        0x0000ad84:    e3540000    ..T.    CMP      r4,#0
        0x0000ad88:    0a00001d    ....    BEQ      0xae04
        0x0000ad8c:    e1d402ba    ....    LDRH     r0,[r4,#0x2a]
        0x0000ad90:    e3500000    ..P.    CMP      r0,#0
        0x0000ad94:    0a000017    ....    BEQ      0xadf8
        0x0000ad98:    e3a00000    ....    MOV      r0,#0
        0x0000ad9c:    e1c402ba    ....    STRH     r0,[r4,#0x2a]
        0x0000ada0:    e5d4002c    ,...    LDRB     r0,[r4,#0x2c]
        0x0000ada4:    e3100008    ....    TST      r0,#8
        0x0000ada8:    1a00000f    ....    BNE      0xadec
        0x0000adac:    e5d40031    1...    LDRB     r0,[r4,#0x31]
        0x0000adb0:    e51f1534    4...    LDR      r1,0xa884
        0x0000adb4:    e5d11000    ....    LDRB     r1,[r1,#0]
        0x0000adb8:    e1800001    ....    ORR      r0,r0,r1
        0x0000adbc:    e51f1540    @...    LDR      r1,0xa884
        0x0000adc0:    e5c10000    ....    STRB     r0,[r1,#0]
        0x0000adc4:    e5d4102f    /...    LDRB     r1,[r4,#0x2f]
        0x0000adc8:    e51f2550    P%..    LDR      r2,0xa880
        0x0000adcc:    e0810002    ....    ADD      r0,r1,r2
        0x0000add0:    e5d01000    ....    LDRB     r1,[r0,#0]
        0x0000add4:    e5d42030    0 ..    LDRB     r2,[r4,#0x30]
        0x0000add8:    e1811002    ....    ORR      r1,r1,r2
        0x0000addc:    e5c01000    ....    STRB     r1,[r0,#0]
        0x0000ade0:    eb000621    !...    BL       ARMEnableInt  ; 0xc66c
        0x0000ade4:    ebfff5a4    ....    BL       OS_Sched  ; 0x847c
        0x0000ade8:    ea000000    ....    B        0xadf0
        0x0000adec:    eb00061e    ....    BL       ARMEnableInt  ; 0xc66c
        0x0000adf0:    e3a00000    ....    MOV      r0,#0
        0x0000adf4:    eaffffde    ....    B        0xad74
        0x0000adf8:    eb00061b    ....    BL       ARMEnableInt  ; 0xc66c
        0x0000adfc:    e3a00050    P...    MOV      r0,#0x50
        0x0000ae00:    eaffffdb    ....    B        0xad74
        0x0000ae04:    eb000618    ....    BL       ARMEnableInt  ; 0xc66c
        0x0000ae08:    e3a0000b    ....    MOV      r0,#0xb
        0x0000ae0c:    eaffffd8    ....    B        0xad74
    OSTimeGet
        0x0000ae10:    e92d4010    .@-.    STMFD    r13!,{r4,r14}
        0x0000ae14:    eb00060f    ....    BL       ARMDisableInt  ; 0xc658
        0x0000ae18:    e59f002c    ,...    LDR      r0,0xae4c
        0x0000ae1c:    e5900000    ....    LDR      r0,[r0,#0]
        0x0000ae20:    e1a04000    .@..    MOV      r4,r0
        0x0000ae24:    eb000610    ....    BL       ARMEnableInt  ; 0xc66c
        0x0000ae28:    e1a00004    ....    MOV      r0,r4
        0x0000ae2c:    e8bd8010    ....    LDMFD    r13!,{r4,pc}
    OSTimeSet
        0x0000ae30:    e92d4010    .@-.    STMFD    r13!,{r4,r14}
        0x0000ae34:    e1a04000    .@..    MOV      r4,r0
        0x0000ae38:    eb000606    ....    BL       ARMDisableInt  ; 0xc658
        0x0000ae3c:    e59f0008    ....    LDR      r0,0xae4c
        0x0000ae40:    e5804000    .@..    STR      r4,[r0,#0]
        0x0000ae44:    eb000608    ....    BL       ARMEnableInt  ; 0xc66c
        0x0000ae48:    e8bd8010    ....    LDMFD    r13!,{r4,pc}
    $d
        0x0000ae4c:    0001054c    L...    DCD    66892
    OSTaskStkInit
    $a
    .text
        0x0000ae50:    e92d4010    .@-.    STMFD    r13!,{r4,r14}
        0x0000ae54:    e1a0c000    ....    MOV      r12,r0
        0x0000ae58:    e1a00000    ....    NOP      
        0x0000ae5c:    e1a00002    ....    MOV      r0,r2
        0x0000ae60:    e240e004    ..@.    SUB      r14,r0,#4
        0x0000ae64:    e1a0000e    ....    MOV      r0,r14
        0x0000ae68:    e58ec000    ....    STR      r12,[r14,#0]
        0x0000ae6c:    e240e004    ..@.    SUB      r14,r0,#4
        0x0000ae70:    e1a0000e    ....    MOV      r0,r14
        0x0000ae74:    e58ec000    ....    STR      r12,[r14,#0]
        0x0000ae78:    e3a04000    .@..    MOV      r4,#0
        0x0000ae7c:    e240e004    ..@.    SUB      r14,r0,#4
        0x0000ae80:    e1a0000e    ....    MOV      r0,r14
        0x0000ae84:    e58e4000    .@..    STR      r4,[r14,#0]
        0x0000ae88:    e3a04000    .@..    MOV      r4,#0
        0x0000ae8c:    e240e004    ..@.    SUB      r14,r0,#4
        0x0000ae90:    e1a0000e    ....    MOV      r0,r14
        0x0000ae94:    e58e4000    .@..    STR      r4,[r14,#0]
        0x0000ae98:    e3a04000    .@..    MOV      r4,#0
        0x0000ae9c:    e240e004    ..@.    SUB      r14,r0,#4
        0x0000aea0:    e1a0000e    ....    MOV      r0,r14
        0x0000aea4:    e58e4000    .@..    STR      r4,[r14,#0]
        0x0000aea8:    e3a04000    .@..    MOV      r4,#0
        0x0000aeac:    e240e004    ..@.    SUB      r14,r0,#4
        0x0000aeb0:    e1a0000e    ....    MOV      r0,r14
        0x0000aeb4:    e58e4000    .@..    STR      r4,[r14,#0]
        0x0000aeb8:    e3a04000    .@..    MOV      r4,#0
        0x0000aebc:    e240e004    ..@.    SUB      r14,r0,#4
        0x0000aec0:    e1a0000e    ....    MOV      r0,r14
        0x0000aec4:    e58e4000    .@..    STR      r4,[r14,#0]
        0x0000aec8:    e3a04000    .@..    MOV      r4,#0
        0x0000aecc:    e240e004    ..@.    SUB      r14,r0,#4
        0x0000aed0:    e1a0000e    ....    MOV      r0,r14
        0x0000aed4:    e58e4000    .@..    STR      r4,[r14,#0]
        0x0000aed8:    e3a04000    .@..    MOV      r4,#0
        0x0000aedc:    e240e004    ..@.    SUB      r14,r0,#4
        0x0000aee0:    e1a0000e    ....    MOV      r0,r14
        0x0000aee4:    e58e4000    .@..    STR      r4,[r14,#0]
        0x0000aee8:    e3a04000    .@..    MOV      r4,#0
        0x0000aeec:    e240e004    ..@.    SUB      r14,r0,#4
        0x0000aef0:    e1a0000e    ....    MOV      r0,r14
        0x0000aef4:    e58e4000    .@..    STR      r4,[r14,#0]
        0x0000aef8:    e3a04000    .@..    MOV      r4,#0
        0x0000aefc:    e240e004    ..@.    SUB      r14,r0,#4
        0x0000af00:    e1a0000e    ....    MOV      r0,r14
        0x0000af04:    e58e4000    .@..    STR      r4,[r14,#0]
        0x0000af08:    e3a04000    .@..    MOV      r4,#0
        0x0000af0c:    e240e004    ..@.    SUB      r14,r0,#4
        0x0000af10:    e1a0000e    ....    MOV      r0,r14
        0x0000af14:    e58e4000    .@..    STR      r4,[r14,#0]
        0x0000af18:    e3a04000    .@..    MOV      r4,#0
        0x0000af1c:    e240e004    ..@.    SUB      r14,r0,#4
        0x0000af20:    e1a0000e    ....    MOV      r0,r14
        0x0000af24:    e58e4000    .@..    STR      r4,[r14,#0]
        0x0000af28:    e3a04000    .@..    MOV      r4,#0
        0x0000af2c:    e240e004    ..@.    SUB      r14,r0,#4
        0x0000af30:    e1a0000e    ....    MOV      r0,r14
        0x0000af34:    e58e4000    .@..    STR      r4,[r14,#0]
        0x0000af38:    e240e004    ..@.    SUB      r14,r0,#4
        0x0000af3c:    e1a0000e    ....    MOV      r0,r14
        0x0000af40:    e58e1000    ....    STR      r1,[r14,#0]
        0x0000af44:    e3a04053    S@..    MOV      r4,#0x53
        0x0000af48:    e240e004    ..@.    SUB      r14,r0,#4
        0x0000af4c:    e1a0000e    ....    MOV      r0,r14
        0x0000af50:    e58e4000    .@..    STR      r4,[r14,#0]
        0x0000af54:    e3a04053    S@..    MOV      r4,#0x53
        0x0000af58:    e240e004    ..@.    SUB      r14,r0,#4
        0x0000af5c:    e1a0000e    ....    MOV      r0,r14
        0x0000af60:    e58e4000    .@..    STR      r4,[r14,#0]
        0x0000af64:    e8bd8010    ....    LDMFD    r13!,{r4,pc}
    OSTaskCreateHook
        0x0000af68:    e1a00000    ....    NOP      
        0x0000af6c:    e1a0f00e    ....    MOV      pc,r14
    OSTaskDelHook
        0x0000af70:    e1a00000    ....    NOP      
        0x0000af74:    e1a0f00e    ....    MOV      pc,r14
    OSTaskSwHook
        0x0000af78:    e1a0f00e    ....    MOV      pc,r14
    OSTaskStatHook
        0x0000af7c:    e92d4008    .@-.    STMFD    r13!,{r3,r14}
        0x0000af80:    e28f0004    ....    ADD      r0,pc,#4 ; #0xaf8c
        0x0000af84:    eb000035    5...    BL       _printf  ; 0xb060
        0x0000af88:    e8bd8008    ....    LDMFD    r13!,{r3,pc}
    $d
        0x0000af8c:    6154534f    OSTa    DCD    1632916303
        0x0000af90:    74536b73    skSt    DCD    1951624051
        0x0000af94:    6f487461    atHo    DCD    1867019361
        0x0000af98:    0a206b6f    ok .    DCD    169896815
        0x0000af9c:    00000000    ....    DCD    0
    OSTimeTickHook
    $a
        0x0000afa0:    e1a0f00e    ....    MOV      pc,r14
    InitHookEnd
        0x0000afa4:    e1a0f00e    ....    MOV      pc,r14
    OSTCBInitHook
        0x0000afa8:    e1a0f00e    ....    MOV      pc,r14
    OSTaskIdleHook
        0x0000afac:    e59f206c    l ..    LDR      r2,0xb020
        0x0000afb0:    e5922000    . ..    LDR      r2,[r2,#0]
        0x0000afb4:    e2823001    .0..    ADD      r3,r2,#1
        0x0000afb8:    e59fc060    `...    LDR      r12,0xb020
        0x0000afbc:    e3520064    d.R.    CMP      r2,#0x64
        0x0000afc0:    e58c3000    .0..    STR      r3,[r12,#0]
        0x0000afc4:    da000010    ....    BLE      0xb00c
        0x0000afc8:    e3a00000    ....    MOV      r0,#0
        0x0000afcc:    e3500b40    @.P.    CMP      r0,#0x10000
        0x0000afd0:    aa00000d    ....    BGE      0xb00c
        0x0000afd4:    ea000001    ....    B        0xafe0
        0x0000afd8:    e2800001    ....    ADD      r0,r0,#1
        0x0000afdc:    eafffffa    ....    B        0xafcc
        0x0000afe0:    e3a01000    ....    MOV      r1,#0
        0x0000afe4:    e3510b40    @.Q.    CMP      r1,#0x10000
        0x0000afe8:    aa000006    ....    BGE      0xb008
        0x0000afec:    ea000001    ....    B        0xaff8
        0x0000aff0:    e2811001    ....    ADD      r1,r1,#1
        0x0000aff4:    eafffffa    ....    B        0xafe4
        0x0000aff8:    e3a02000    . ..    MOV      r2,#0
        0x0000affc:    e59f301c    .0..    LDR      r3,0xb020
        0x0000b000:    e5832000    . ..    STR      r2,[r3,#0]
        0x0000b004:    eafffff9    ....    B        0xaff0
        0x0000b008:    eafffff2    ....    B        0xafd8
        0x0000b00c:    e1a0f00e    ....    MOV      pc,r14
    OSInitHookBegin
        0x0000b010:    e92d4008    .@-.    STMFD    r13!,{r3,r14}
        0x0000b014:    e28f0008    ....    ADD      r0,pc,#8 ; #0xb024
        0x0000b018:    eb000010    ....    BL       _printf  ; 0xb060
        0x0000b01c:    e8bd8008    ....    LDMFD    r13!,{r3,pc}
    $d
        0x0000b020:    00010550    P...    DCD    66896
        0x0000b024:    6e49534f    OSIn    DCD    1850299215
        0x0000b028:    6f487469    itHo    DCD    1867019369
        0x0000b02c:    65426b6f    okBe    DCD    1698851695
        0x0000b030:    206e6967    gin     DCD    544106855
        0x0000b034:    0000000a    ....    DCD    10
    OSInitHookEnd
    $a
        0x0000b038:    e92d4008    .@-.    STMFD    r13!,{r3,r14}
        0x0000b03c:    e28f0004    ....    ADD      r0,pc,#4 ; #0xb048
        0x0000b040:    eb000006    ....    BL       _printf  ; 0xb060
        0x0000b044:    e8bd8008    ....    LDMFD    r13!,{r3,pc}
    $d
        0x0000b048:    6e49534f    OSIn    DCD    1850299215
        0x0000b04c:    6f487469    itHo    DCD    1867019369
        0x0000b050:    6e456b6f    okEn    DCD    1850043247
        0x0000b054:    000a2064    d ..    DCD    663652
    OS_FlagInit
    $a
        0x0000b058:    e1a0f00e    ....    MOV      pc,r14
    OS_FlagUnlink
        0x0000b05c:    e1a0f00e    ....    MOV      pc,r14
    _printf
    .text
        0x0000b060:    e92d000f    ..-.    STMFD    r13!,{r0-r3}
        0x0000b064:    e52de004    ..-.    STR      r14,[r13,#-4]!
        0x0000b068:    e24dd03c    <.M.    SUB      r13,r13,#0x3c
        0x0000b06c:    e28d0044    D...    ADD      r0,r13,#0x44
        0x0000b070:    e58d0038    8...    STR      r0,[r13,#0x38]
        0x0000b074:    e59f002c    ,...    LDR      r0,0xb0a8
        0x0000b078:    e08f0000    ....    ADD      r0,pc,r0
        0x0000b07c:    e58d0020     ...    STR      r0,[r13,#0x20]
        0x0000b080:    e59f0024    $...    LDR      r0,0xb0ac
        0x0000b084:    e08f0000    ....    ADD      r0,pc,r0
        0x0000b088:    e58d0024    $...    STR      r0,[r13,#0x24]
        0x0000b08c:    e59f001c    ....    LDR      r0,0xb0b0
        0x0000b090:    e28d3004    .0..    ADD      r3,r13,#4
        0x0000b094:    e28d2038    8 ..    ADD      r2,r13,#0x38
        0x0000b098:    e59d1040    @...    LDR      r1,[r13,#0x40]
        0x0000b09c:    eb0000e3    ....    BL       __vfprintf  ; 0xb430
        0x0000b0a0:    e28dd03c    <...    ADD      r13,r13,#0x3c
        0x0000b0a4:    e49df014    ....    LDR      pc,[r13],#0x14
    $d
    $f
        0x0000b0a8:    ffffcfcc    ....    DCD    4294954956
    $f
        0x0000b0ac:    ffffcfdc    ....    DCD    4294954972
        0x0000b0b0:    0000c8e0    ....    DCD    51424
    __rt_lib_init
    $a
    .text
        0x0000b0b4:    e92d40f0    .@-.    STMFD    r13!,{r4-r7,r14}
        0x0000b0b8:    e24dd00c    ..M.    SUB      r13,r13,#0xc
        0x0000b0bc:    e1a05001    .P..    MOV      r5,r1
        0x0000b0c0:    e1a04000    .@..    MOV      r4,r0
        0x0000b0c4:    eb000571    q...    BL       _fp_init  ; 0xc690
        0x0000b0c8:    e3a00000    ....    MOV      r0,#0
        0x0000b0cc:    e58d4000    .@..    STR      r4,[r13,#0]
        0x0000b0d0:    e58d5004    .P..    STR      r5,[r13,#4]
        0x0000b0d4:    ebffffff    ....    BL       0xb0d8
        0x0000b0d8:    e58d0008    ....    STR      r0,[r13,#8]
        0x0000b0dc:    e59f00c8    ....    LDR      r0,0xb1ac
        0x0000b0e0:    e1a0100d    ....    MOV      r1,r13
        0x0000b0e4:    e08f0000    ....    ADD      r0,pc,r0
        0x0000b0e8:    ebffffff    ....    BL       0xb0ec
        0x0000b0ec:    e1a05000    .P..    MOV      r5,r0
        0x0000b0f0:    e1a06001    .`..    MOV      r6,r1
        0x0000b0f4:    e89d0003    ....    LDMIA    r13,{r0,r1}
        0x0000b0f8:    ebffffff    ....    BL       0xb0fc
        0x0000b0fc:    ebffffff    ....    BL       0xb100
        0x0000b100:    ebffffff    ....    BL       0xb104
        0x0000b104:    e3a01000    ....    MOV      r1,#0
        0x0000b108:    e3a00000    ....    MOV      r0,#0
        0x0000b10c:    ebffffff    ....    BL       0xb110
        0x0000b110:    e1a07000    .p..    MOV      r7,r0
        0x0000b114:    eb000413    ....    BL       __user_libspace  ; 0xc168
        0x0000b118:    e1a04000    .@..    MOV      r4,r0
        0x0000b11c:    e5807020     p..    STR      r7,[r0,#0x20]
        0x0000b120:    e3a00000    ....    MOV      r0,#0
        0x0000b124:    e3a01000    ....    MOV      r1,#0
        0x0000b128:    ebffffff    ....    BL       0xb12c
        0x0000b12c:    e2801001    ....    ADD      r1,r0,#1
        0x0000b130:    e5841024    $...    STR      r1,[r4,#0x24]
        0x0000b134:    e3a01000    ....    MOV      r1,#0
        0x0000b138:    e3a00000    ....    MOV      r0,#0
        0x0000b13c:    ebffffff    ....    BL       0xb140
        0x0000b140:    e5840028    (...    STR      r0,[r4,#0x28]
        0x0000b144:    e3a00000    ....    MOV      r0,#0
        0x0000b148:    e3a01000    ....    MOV      r1,#0
        0x0000b14c:    ebffffff    ....    BL       0xb150
        0x0000b150:    e584002c    ,...    STR      r0,[r4,#0x2c]
        0x0000b154:    e3a00000    ....    MOV      r0,#0
        0x0000b158:    e3a01000    ....    MOV      r1,#0
        0x0000b15c:    ebffffff    ....    BL       0xb160
        0x0000b160:    e5840030    0...    STR      r0,[r4,#0x30]
        0x0000b164:    ebffffff    ....    BL       0xb168
        0x0000b168:    ebffffff    ....    BL       0xb16c
        0x0000b16c:    ebffffff    ....    BL       0xb170
        0x0000b170:    ebffffff    ....    BL       0xb174
        0x0000b174:    ebffffff    ....    BL       0xb178
        0x0000b178:    ebffffff    ....    BL       0xb17c
        0x0000b17c:    ebffffff    ....    BL       0xb180
        0x0000b180:    ebffffff    ....    BL       0xb184
        0x0000b184:    e1a00005    ....    MOV      r0,r5
        0x0000b188:    e1a01006    ....    MOV      r1,r6
        0x0000b18c:    e28dd00c    ....    ADD      r13,r13,#0xc
        0x0000b190:    e8bd00f0    ....    LDMFD    r13!,{r4-r7}
        0x0000b194:    e49df004    ....    LDR      pc,[r13],#4
    __rt_lib_shutdown
        0x0000b198:    e92d4008    .@-.    STMFD    r13!,{r3,r14}
        0x0000b19c:    ebffffff    ....    BL       0xb1a0
        0x0000b1a0:    ebffffff    ....    BL       0xb1a4
        0x0000b1a4:    ebffffff    ....    BL       0xb1a8
        0x0000b1a8:    e8bd8008    ....    LDMFD    r13!,{r3,pc}
    $d
        0x0000b1ac:    000000c0    ....    DCD    192
    __rt_memclr_w
    $a
    .text
        0x0000b1b0:    e3a02000    . ..    MOV      r2,#0
    _memset_w
        0x0000b1b4:    e92d4000    .@-.    STMFD    r13!,{r14}
        0x0000b1b8:    e1a03002    .0..    MOV      r3,r2
        0x0000b1bc:    e1a0c002    ....    MOV      r12,r2
        0x0000b1c0:    e1a0e002    ....    MOV      r14,r2
        0x0000b1c4:    e2511020     .Q.    SUBS     r1,r1,#0x20
    _loop
        0x0000b1c8:    28a0500c    .P.(    STMCSIA  r0!,{r2,r3,r12,r14}
        0x0000b1cc:    28a0500c    .P.(    STMCSIA  r0!,{r2,r3,r12,r14}
        0x0000b1d0:    22511020     .Q"    SUBCSS   r1,r1,#0x20
        0x0000b1d4:    2afffffb    ...*    BCS      _loop  ; 0xb1c8
        0x0000b1d8:    e1b01e01    ....    MOVS     r1,r1,LSL #28
        0x0000b1dc:    28a0500c    .P.(    STMCSIA  r0!,{r2,r3,r12,r14}
        0x0000b1e0:    48a0000c    ...H    STMMIIA  r0!,{r2,r3}
        0x0000b1e4:    e8bd4000    .@..    LDMFD    r13!,{r14}
        0x0000b1e8:    e1b01101    ....    MOVS     r1,r1,LSL #2
        0x0000b1ec:    24802004    . .$    STRCS    r2,[r0],#4
        0x0000b1f0:    01a0f00e    ....    MOVEQ    pc,r14
        0x0000b1f4:    44c02001    . .D    STRMIB   r2,[r0],#1
        0x0000b1f8:    44c02001    . .D    STRMIB   r2,[r0],#1
        0x0000b1fc:    e3110440    @...    TST      r1,#0x40000000
        0x0000b200:    14c02001    . ..    STRNEB   r2,[r0],#1
        0x0000b204:    e1a0f00e    ....    MOV      pc,r14
    __rt_memcpy_w
    .text
        0x0000b208:    e92d4010    .@-.    STMFD    r13!,{r4,r14}
        0x0000b20c:    e2522020      R.    SUBS     r2,r2,#0x20
        0x0000b210:    3a000005    ...:    BCC      _memcpy_small  ; 0xb22c
    _memcpy_aligned_loop
        0x0000b214:    28b15018    .P.(    LDMCSIA  r1!,{r3,r4,r12,r14}
        0x0000b218:    28a05018    .P.(    STMCSIA  r0!,{r3,r4,r12,r14}
        0x0000b21c:    28b15018    .P.(    LDMCSIA  r1!,{r3,r4,r12,r14}
        0x0000b220:    28a05018    .P.(    STMCSIA  r0!,{r3,r4,r12,r14}
        0x0000b224:    22522020      R"    SUBCSS   r2,r2,#0x20
        0x0000b228:    2afffff9    ...*    BCS      _memcpy_aligned_loop  ; 0xb214
    _memcpy_small
        0x0000b22c:    e1b0ce02    ....    MOVS     r12,r2,LSL #28
        0x0000b230:    28b15018    .P.(    LDMCSIA  r1!,{r3,r4,r12,r14}
        0x0000b234:    28a05018    .P.(    STMCSIA  r0!,{r3,r4,r12,r14}
        0x0000b238:    48b10018    ...H    LDMMIIA  r1!,{r3,r4}
        0x0000b23c:    48a00018    ...H    STMMIIA  r0!,{r3,r4}
        0x0000b240:    e8bd4010    .@..    LDMFD    r13!,{r4,r14}
        0x0000b244:    e1b0cf02    ....    MOVS     r12,r2,LSL #30
        0x0000b248:    24913004    .0.$    LDRCS    r3,[r1],#4
        0x0000b24c:    24803004    .0.$    STRCS    r3,[r0],#4
        0x0000b250:    01a0f00e    ....    MOVEQ    pc,r14
    _memcpy_lastbytes
        0x0000b254:    e1b02f82    ./..    MOVS     r2,r2,LSL #31
        0x0000b258:    44d12001    . .D    LDRMIB   r2,[r1],#1
        0x0000b25c:    24d13001    .0.$    LDRCSB   r3,[r1],#1
        0x0000b260:    24d1c001    ...$    LDRCSB   r12,[r1],#1
        0x0000b264:    44c02001    . .D    STRMIB   r2,[r0],#1
        0x0000b268:    24c03001    .0.$    STRCSB   r3,[r0],#1
        0x0000b26c:    24c0c001    ...$    STRCSB   r12,[r0],#1
        0x0000b270:    e1a0f00e    ....    MOV      pc,r14
    __rt_udiv
    .text
        0x0000b274:    e3a02000    . ..    MOV      r2,#0
        0x0000b278:    e070c1a1    ..p.    RSBS     r12,r0,r1,LSR #3
        0x0000b27c:    3a000020     ..:    BCC      0xb304
        0x0000b280:    e070c421    !.p.    RSBS     r12,r0,r1,LSR #8
        0x0000b284:    3a00000f    ...:    BCC      0xb2c8
        0x0000b288:    e1a00400    ....    MOV      r0,r0,LSL #8
        0x0000b28c:    e38224ff    .$..    ORR      r2,r2,#0xff000000
        0x0000b290:    e070c221    !.p.    RSBS     r12,r0,r1,LSR #4
        0x0000b294:    3a000017    ...:    BCC      0xb2f8
        0x0000b298:    e070c421    !.p.    RSBS     r12,r0,r1,LSR #8
        0x0000b29c:    3a000009    ...:    BCC      0xb2c8
        0x0000b2a0:    e1a00400    ....    MOV      r0,r0,LSL #8
        0x0000b2a4:    e38228ff    .(..    ORR      r2,r2,#0xff0000
        0x0000b2a8:    e070c421    !.p.    RSBS     r12,r0,r1,LSR #8
        0x0000b2ac:    21a00400    ...!    MOVCS    r0,r0,LSL #8
        0x0000b2b0:    23822cff    .,.#    ORRCS    r2,r2,#0xff00
        0x0000b2b4:    e070c221    !.p.    RSBS     r12,r0,r1,LSR #4
        0x0000b2b8:    3a00000e    ...:    BCC      0xb2f8
        0x0000b2bc:    e270c000    ..p.    RSBS     r12,r0,#0
        0x0000b2c0:    2a0003ab    ...*    BCS      __rt_div0  ; 0xc174
        0x0000b2c4:    21a00420     ..!    MOVCS    r0,r0,LSR #8
        0x0000b2c8:    e070c3a1    ..p.    RSBS     r12,r0,r1,LSR #7
        0x0000b2cc:    20411380    ..A     SUBCS    r1,r1,r0,LSL #7
        0x0000b2d0:    e0a22002    . ..    ADC      r2,r2,r2
        0x0000b2d4:    e070c321    !.p.    RSBS     r12,r0,r1,LSR #6
        0x0000b2d8:    20411300    ..A     SUBCS    r1,r1,r0,LSL #6
        0x0000b2dc:    e0a22002    . ..    ADC      r2,r2,r2
        0x0000b2e0:    e070c2a1    ..p.    RSBS     r12,r0,r1,LSR #5
        0x0000b2e4:    20411280    ..A     SUBCS    r1,r1,r0,LSL #5
        0x0000b2e8:    e0a22002    . ..    ADC      r2,r2,r2
        0x0000b2ec:    e070c221    !.p.    RSBS     r12,r0,r1,LSR #4
        0x0000b2f0:    20411200    ..A     SUBCS    r1,r1,r0,LSL #4
        0x0000b2f4:    e0a22002    . ..    ADC      r2,r2,r2
        0x0000b2f8:    e070c1a1    ..p.    RSBS     r12,r0,r1,LSR #3
        0x0000b2fc:    20411180    ..A     SUBCS    r1,r1,r0,LSL #3
        0x0000b300:    e0a22002    . ..    ADC      r2,r2,r2
        0x0000b304:    e070c121    !.p.    RSBS     r12,r0,r1,LSR #2
        0x0000b308:    20411100    ..A     SUBCS    r1,r1,r0,LSL #2
        0x0000b30c:    e0a22002    . ..    ADC      r2,r2,r2
        0x0000b310:    e070c0a1    ..p.    RSBS     r12,r0,r1,LSR #1
        0x0000b314:    20411080    ..A     SUBCS    r1,r1,r0,LSL #1
        0x0000b318:    e0a22002    . ..    ADC      r2,r2,r2
        0x0000b31c:    e070c001    ..p.    RSBS     r12,r0,r1
        0x0000b320:    20411000    ..A     SUBCS    r1,r1,r0
        0x0000b324:    e0b22002    . ..    ADCS     r2,r2,r2
        0x0000b328:    2affffe5    ...*    BCS      0xb2c4
        0x0000b32c:    e1a00002    ....    MOV      r0,r2
        0x0000b330:    e1a0f00e    ....    MOV      pc,r14
    __rt_stackheap_init
    .text
        0x0000b334:    e1a0500e    .P..    MOV      r5,r14
        0x0000b338:    eb00038a    ....    BL       __user_libspace  ; 0xc168
        0x0000b33c:    e1a0e005    ....    MOV      r14,r5
        0x0000b340:    e1a04000    .@..    MOV      r4,r0
        0x0000b344:    e1a0100d    ....    MOV      r1,r13
        0x0000b348:    e1a0300a    .0..    MOV      r3,r10
        0x0000b34c:    e3c00007    ....    BIC      r0,r0,#7
        0x0000b350:    e280d060    `...    ADD      r13,r0,#0x60
        0x0000b354:    e92d4010    .@-.    STMFD    r13!,{r4,r14}
        0x0000b358:    eb000388    ....    BL       __user_initial_stackheap  ; 0xc180
        0x0000b35c:    e8bd4010    .@..    LDMFD    r13!,{r4,r14}
        0x0000b360:    e3c1d007    ....    BIC      r13,r1,#7
        0x0000b364:    e3a06000    .`..    MOV      r6,#0
        0x0000b368:    e3a07000    .p..    MOV      r7,#0
        0x0000b36c:    e3a08000    ....    MOV      r8,#0
        0x0000b370:    e3a0b000    ....    MOV      r11,#0
        0x0000b374:    e1a0c004    ....    MOV      r12,r4
        0x0000b378:    e8ac09c0    ....    STMIA    r12!,{r6-r8,r11}
        0x0000b37c:    e8ac09c0    ....    STMIA    r12!,{r6-r8,r11}
        0x0000b380:    e8ac09c0    ....    STMIA    r12!,{r6-r8,r11}
        0x0000b384:    e8ac09c0    ....    STMIA    r12!,{r6-r8,r11}
        0x0000b388:    e92d4013    .@-.    STMFD    r13!,{r0,r1,r4,r14}
        0x0000b38c:    e3a00000    ....    MOV      r0,#0
        0x0000b390:    e3a01000    ....    MOV      r1,#0
        0x0000b394:    ebffffff    ....    BL       0xb398
        0x0000b398:    e2811040    @...    ADD      r1,r1,#0x40
        0x0000b39c:    e0802001    . ..    ADD      r2,r0,r1
        0x0000b3a0:    e2822f44    D/..    ADD      r2,r2,#0x110
        0x0000b3a4:    e584201c    . ..    STR      r2,[r4,#0x1c]
        0x0000b3a8:    e5841018    ....    STR      r1,[r4,#0x18]
        0x0000b3ac:    e3a00001    ....    MOV      r0,#1
        0x0000b3b0:    e5840010    ....    STR      r0,[r4,#0x10]
        0x0000b3b4:    e8bd4013    .@..    LDMFD    r13!,{r0,r1,r4,r14}
        0x0000b3b8:    e5840014    ....    STR      r0,[r4,#0x14]
        0x0000b3bc:    e1a01000    ....    MOV      r1,r0
        0x0000b3c0:    e1a0f00e    ....    MOV      pc,r14
    __rt_heap_extend
        0x0000b3c4:    e92d4010    .@-.    STMFD    r13!,{r4,r14}
        0x0000b3c8:    e92d0003    ..-.    STMFD    r13!,{r0,r1}
        0x0000b3cc:    eb000365    e...    BL       __user_libspace  ; 0xc168
        0x0000b3d0:    e1a04000    .@..    MOV      r4,r0
        0x0000b3d4:    e8bd0003    ....    LDMFD    r13!,{r0,r1}
        0x0000b3d8:    e594301c    .0..    LDR      r3,[r4,#0x1c]
        0x0000b3dc:    e04d3003    .0M.    SUB      r3,r13,r3
        0x0000b3e0:    e5942014    . ..    LDR      r2,[r4,#0x14]
        0x0000b3e4:    e5812000    . ..    STR      r2,[r1,#0]
        0x0000b3e8:    e082e000    ....    ADD      r14,r2,r0
        0x0000b3ec:    e15e0003    ..^.    CMP      r14,r3
        0x0000b3f0:    8a00000a    ....    BHI      _heap_overflow  ; 0xb420
        0x0000b3f4:    e093300e    .0..    ADDS     r3,r3,r14
        0x0000b3f8:    e1a03063    c0..    MOV      r3,r3,RRX
        0x0000b3fc:    e3c33007    .0..    BIC      r3,r3,#7
        0x0000b400:    e28e1d40    @...    ADD      r1,r14,#0x1000
        0x0000b404:    e2811007    ....    ADD      r1,r1,#7
        0x0000b408:    e3c11007    ....    BIC      r1,r1,#7
        0x0000b40c:    e1510003    ..Q.    CMP      r1,r3
        0x0000b410:    81a01003    ....    MOVHI    r1,r3
        0x0000b414:    e0410002    ..A.    SUB      r0,r1,r2
        0x0000b418:    e5841014    ....    STR      r1,[r4,#0x14]
        0x0000b41c:    e8bd8010    ....    LDMFD    r13!,{r4,pc}
    _heap_overflow
        0x0000b420:    e1a02000    . ..    MOV      r2,r0
        0x0000b424:    e3a00000    ....    MOV      r0,#0
        0x0000b428:    ebffffff    ....    BL       0xb42c
        0x0000b42c:    e8bd8010    ....    LDMFD    r13!,{r4,pc}
    __vfprintf
    .text
        0x0000b430:    e92d4d80    .M-.    STMFD    r13!,{r7,r8,r10,r11,r14}
        0x0000b434:    e92d007c    |.-.    STMFD    r13!,{r2-r6}
        0x0000b438:    e92d0003    ..-.    STMFD    r13!,{r0,r1}
        0x0000b43c:    e5d10000    ....    LDRB     r0,[r1,#0]
        0x0000b440:    e24dd008    ..M.    SUB      r13,r13,#8
        0x0000b444:    e1a06003    .`..    MOV      r6,r3
        0x0000b448:    e1a05002    .P..    MOV      r5,r2
        0x0000b44c:    e3a08000    ....    MOV      r8,#0
        0x0000b450:    e2817001    .p..    ADD      r7,r1,#1
        0x0000b454:    e3500000    ..P.    CMP      r0,#0
        0x0000b458:    0a0001d9    ....    BEQ      0xbbc4
        0x0000b45c:    e3500025    %.P.    CMP      r0,#0x25
        0x0000b460:    0a000005    ....    BEQ      0xb47c
        0x0000b464:    e596201c    . ..    LDR      r2,[r6,#0x1c]
        0x0000b468:    e59d1008    ....    LDR      r1,[r13,#8]
        0x0000b46c:    e1a0e00f    ....    MOV      r14,pc
    $p
        0x0000b470:    e1a0f002    ....    MOV      pc,r2
        0x0000b474:    e2888001    ....    ADD      r8,r8,#1
        0x0000b478:    ea0001ce    ....    B        0xbbb8
        0x0000b47c:    e3a02000    . ..    MOV      r2,#0
        0x0000b480:    e5862008    . ..    STR      r2,[r6,#8]
        0x0000b484:    e3a04000    .@..    MOV      r4,#0
        0x0000b488:    e3a0b000    ....    MOV      r11,#0
        0x0000b48c:    e4d7a001    ....    LDRB     r10,[r7],#1
        0x0000b490:    e35a002b    +.Z.    CMP      r10,#0x2b
        0x0000b494:    03844002    .@..    ORREQ    r4,r4,#2
        0x0000b498:    0afffffb    ....    BEQ      0xb48c
        0x0000b49c:    ca000006    ....    BGT      0xb4bc
        0x0000b4a0:    e35a0020     .Z.    CMP      r10,#0x20
        0x0000b4a4:    03844004    .@..    ORREQ    r4,r4,#4
        0x0000b4a8:    0afffff7    ....    BEQ      0xb48c
        0x0000b4ac:    e35a0023    #.Z.    CMP      r10,#0x23
        0x0000b4b0:    03844008    .@..    ORREQ    r4,r4,#8
        0x0000b4b4:    0afffff4    ....    BEQ      0xb48c
        0x0000b4b8:    ea000006    ....    B        0xb4d8
        0x0000b4bc:    e35a002d    -.Z.    CMP      r10,#0x2d
        0x0000b4c0:    03c40f40    @...    BICEQ    r0,r4,#0x100
        0x0000b4c4:    03804001    .@..    ORREQ    r4,r0,#1
        0x0000b4c8:    0affffef    ....    BEQ      0xb48c
        0x0000b4cc:    e35a0030    0.Z.    CMP      r10,#0x30
        0x0000b4d0:    03844f40    @O..    ORREQ    r4,r4,#0x100
        0x0000b4d4:    0affffec    ....    BEQ      0xb48c
        0x0000b4d8:    e3a00000    ....    MOV      r0,#0
        0x0000b4dc:    e35a002a    *.Z.    CMP      r10,#0x2a
        0x0000b4e0:    1a000007    ....    BNE      0xb504
        0x0000b4e4:    e5951000    ....    LDR      r1,[r5,#0]
        0x0000b4e8:    e4910004    ....    LDR      r0,[r1],#4
        0x0000b4ec:    e5851000    ....    STR      r1,[r5,#0]
        0x0000b4f0:    e3500000    ..P.    CMP      r0,#0
        0x0000b4f4:    b2600000    ..`.    RSBLT    r0,r0,#0
        0x0000b4f8:    b2244001    .@$.    EORLT    r4,r4,#1
        0x0000b4fc:    e4d7a001    ....    LDRB     r10,[r7],#1
        0x0000b500:    ea000009    ....    B        0xb52c
        0x0000b504:    e24a1030    0.J.    SUB      r1,r10,#0x30
        0x0000b508:    e351000a    ..Q.    CMP      r1,#0xa
        0x0000b50c:    2a000008    ...*    BCS      0xb534
        0x0000b510:    e0800100    ....    ADD      r0,r0,r0,LSL #2
        0x0000b514:    e08a0080    ....    ADD      r0,r10,r0,LSL #1
        0x0000b518:    e4d7a001    ....    LDRB     r10,[r7],#1
        0x0000b51c:    e2400030    0.@.    SUB      r0,r0,#0x30
        0x0000b520:    e24a1030    0.J.    SUB      r1,r10,#0x30
        0x0000b524:    e351000a    ..Q.    CMP      r1,#0xa
        0x0000b528:    3afffff8    ...:    BCC      0xb510
        0x0000b52c:    e3500000    ..P.    CMP      r0,#0
        0x0000b530:    b3a00000    ....    MOVLT    r0,#0
        0x0000b534:    e35a002e    ..Z.    CMP      r10,#0x2e
        0x0000b538:    e58d0004    ....    STR      r0,[r13,#4]
        0x0000b53c:    1a000016    ....    BNE      0xb59c
        0x0000b540:    e4d7a001    ....    LDRB     r10,[r7],#1
        0x0000b544:    e3a00000    ....    MOV      r0,#0
        0x0000b548:    e35a002a    *.Z.    CMP      r10,#0x2a
        0x0000b54c:    1a000004    ....    BNE      0xb564
        0x0000b550:    e5951000    ....    LDR      r1,[r5,#0]
        0x0000b554:    e4910004    ....    LDR      r0,[r1],#4
        0x0000b558:    e5851000    ....    STR      r1,[r5,#0]
        0x0000b55c:    e4d7a001    ....    LDRB     r10,[r7],#1
        0x0000b560:    ea000009    ....    B        0xb58c
        0x0000b564:    e24a1030    0.J.    SUB      r1,r10,#0x30
        0x0000b568:    e351000a    ..Q.    CMP      r1,#0xa
        0x0000b56c:    2a000008    ...*    BCS      0xb594
        0x0000b570:    e0800100    ....    ADD      r0,r0,r0,LSL #2
        0x0000b574:    e08a0080    ....    ADD      r0,r10,r0,LSL #1
        0x0000b578:    e4d7a001    ....    LDRB     r10,[r7],#1
        0x0000b57c:    e2400030    0.@.    SUB      r0,r0,#0x30
        0x0000b580:    e24a1030    0.J.    SUB      r1,r10,#0x30
        0x0000b584:    e351000a    ..Q.    CMP      r1,#0xa
        0x0000b588:    3afffff8    ...:    BCC      0xb570
        0x0000b58c:    e3500000    ..P.    CMP      r0,#0
        0x0000b590:    ba000001    ....    BLT      0xb59c
        0x0000b594:    e3844010    .@..    ORR      r4,r4,#0x10
        0x0000b598:    e5860008    ....    STR      r0,[r6,#8]
        0x0000b59c:    e35a006c    l.Z.    CMP      r10,#0x6c
        0x0000b5a0:    0a000002    ....    BEQ      0xb5b0
        0x0000b5a4:    e35a004c    L.Z.    CMP      r10,#0x4c
        0x0000b5a8:    1a000008    ....    BNE      0xb5d0
        0x0000b5ac:    ea000004    ....    B        0xb5c4
        0x0000b5b0:    e5d70000    ....    LDRB     r0,[r7,#0]
        0x0000b5b4:    e350006c    l.P.    CMP      r0,#0x6c
        0x0000b5b8:    03844040    @@..    ORREQ    r4,r4,#0x40
        0x0000b5bc:    02877001    .p..    ADDEQ    r7,r7,#1
        0x0000b5c0:    0a000000    ....    BEQ      0xb5c8
        0x0000b5c4:    e3844020     @..    ORR      r4,r4,#0x20
        0x0000b5c8:    e4d7a001    ....    LDRB     r10,[r7],#1
        0x0000b5cc:    ea00000f    ....    B        0xb610
        0x0000b5d0:    e35a0068    h.Z.    CMP      r10,#0x68
        0x0000b5d4:    1a000006    ....    BNE      0xb5f4
        0x0000b5d8:    e5d70000    ....    LDRB     r0,[r7,#0]
        0x0000b5dc:    e3500068    h.P.    CMP      r0,#0x68
        0x0000b5e0:    13844080    .@..    ORRNE    r4,r4,#0x80
        0x0000b5e4:    02877001    .p..    ADDEQ    r7,r7,#1
        0x0000b5e8:    e4d7a001    ....    LDRB     r10,[r7],#1
        0x0000b5ec:    03844e40    @N..    ORREQ    r4,r4,#0x400
        0x0000b5f0:    ea000006    ....    B        0xb610
        0x0000b5f4:    e35a006a    j.Z.    CMP      r10,#0x6a
        0x0000b5f8:    03844040    @@..    ORREQ    r4,r4,#0x40
        0x0000b5fc:    04d7a001    ....    LDREQB   r10,[r7],#1
        0x0000b600:    0a000002    ....    BEQ      0xb610
        0x0000b604:    e35a0074    t.Z.    CMP      r10,#0x74
        0x0000b608:    135a007a    z.Z.    CMPNE    r10,#0x7a
        0x0000b60c:    04d7a001    ....    LDREQB   r10,[r7],#1
        0x0000b610:    e35a0067    g.Z.    CMP      r10,#0x67
        0x0000b614:    0a000151    Q...    BEQ      0xbb60
        0x0000b618:    ca000011    ....    BGT      0xb664
        0x0000b61c:    e35a0063    c.Z.    CMP      r10,#0x63
        0x0000b620:    0a000020     ...    BEQ      0xb6a8
        0x0000b624:    ca000008    ....    BGT      0xb64c
        0x0000b628:    e35a0000    ..Z.    CMP      r10,#0
        0x0000b62c:    02477001    .pG.    SUBEQ    r7,r7,#1
        0x0000b630:    0a000160    `...    BEQ      0xbbb8
        0x0000b634:    e35a0045    E.Z.    CMP      r10,#0x45
        0x0000b638:    135a0047    G.Z.    CMPNE    r10,#0x47
        0x0000b63c:    0a000147    G...    BEQ      0xbb60
        0x0000b640:    e35a0058    X.Z.    CMP      r10,#0x58
        0x0000b644:    0a0000a7    ....    BEQ      0xb8e8
        0x0000b648:    ea000019    ....    B        0xb6b4
        0x0000b64c:    e35a0064    d.Z.    CMP      r10,#0x64
        0x0000b650:    0a000115    ....    BEQ      0xbaac
        0x0000b654:    e35a0065    e.Z.    CMP      r10,#0x65
        0x0000b658:    135a0066    f.Z.    CMPNE    r10,#0x66
        0x0000b65c:    0a00013f    ?...    BEQ      0xbb60
        0x0000b660:    ea000013    ....    B        0xb6b4
        0x0000b664:    e35a0070    p.Z.    CMP      r10,#0x70
        0x0000b668:    0a0000d4    ....    BEQ      0xb9c0
        0x0000b66c:    ca000006    ....    BGT      0xb68c
        0x0000b670:    e35a0069    i.Z.    CMP      r10,#0x69
        0x0000b674:    0a00010c    ....    BEQ      0xbaac
        0x0000b678:    e35a006e    n.Z.    CMP      r10,#0x6e
        0x0000b67c:    0a000032    2...    BEQ      0xb74c
        0x0000b680:    e35a006f    o.Z.    CMP      r10,#0x6f
        0x0000b684:    0a0000da    ....    BEQ      0xb9f4
        0x0000b688:    ea000009    ....    B        0xb6b4
        0x0000b68c:    e35a0073    s.Z.    CMP      r10,#0x73
        0x0000b690:    0a00004c    L...    BEQ      0xb7c8
        0x0000b694:    e35a0075    u.Z.    CMP      r10,#0x75
        0x0000b698:    0a0000ed    ....    BEQ      0xba54
        0x0000b69c:    e35a0078    x.Z.    CMP      r10,#0x78
        0x0000b6a0:    0a0000ab    ....    BEQ      0xb954
        0x0000b6a4:    ea000002    ....    B        0xb6b4
        0x0000b6a8:    e5950000    ....    LDR      r0,[r5,#0]
        0x0000b6ac:    e490a004    ....    LDR      r10,[r0],#4
        0x0000b6b0:    e5850000    ....    STR      r0,[r5,#0]
        0x0000b6b4:    e59d0004    ....    LDR      r0,[r13,#4]
        0x0000b6b8:    e3140001    ....    TST      r4,#1
        0x0000b6bc:    e240b001    ..@.    SUB      r11,r0,#1
        0x0000b6c0:    1a00000e    ....    BNE      0xb700
        0x0000b6c4:    e3140f40    @...    TST      r4,#0x100
        0x0000b6c8:    03a00020     ...    MOVEQ    r0,#0x20
        0x0000b6cc:    13a00030    0...    MOVNE    r0,#0x30
        0x0000b6d0:    e20000ff    ....    AND      r0,r0,#0xff
        0x0000b6d4:    e58d0000    ....    STR      r0,[r13,#0]
        0x0000b6d8:    e25bb001    ..[.    SUBS     r11,r11,#1
        0x0000b6dc:    4a000007    ...J    BMI      0xb700
        0x0000b6e0:    e596201c    . ..    LDR      r2,[r6,#0x1c]
        0x0000b6e4:    e59d0000    ....    LDR      r0,[r13,#0]
        0x0000b6e8:    e59d1008    ....    LDR      r1,[r13,#8]
        0x0000b6ec:    e2888001    ....    ADD      r8,r8,#1
        0x0000b6f0:    e1a0e00f    ....    MOV      r14,pc
    $p
        0x0000b6f4:    e1a0f002    ....    MOV      pc,r2
        0x0000b6f8:    e25bb001    ..[.    SUBS     r11,r11,#1
        0x0000b6fc:    5afffff7    ...Z    BPL      0xb6e0
        0x0000b700:    e596201c    . ..    LDR      r2,[r6,#0x1c]
        0x0000b704:    e59d1008    ....    LDR      r1,[r13,#8]
        0x0000b708:    e1a0000a    ....    MOV      r0,r10
        0x0000b70c:    e1a0e00f    ....    MOV      r14,pc
    $p
        0x0000b710:    e1a0f002    ....    MOV      pc,r2
        0x0000b714:    e2888001    ....    ADD      r8,r8,#1
        0x0000b718:    e3140001    ....    TST      r4,#1
        0x0000b71c:    0a000125    %...    BEQ      0xbbb8
        0x0000b720:    e25b4001    .@[.    SUBS     r4,r11,#1
        0x0000b724:    4a000123    #..J    BMI      0xbbb8
        0x0000b728:    e596201c    . ..    LDR      r2,[r6,#0x1c]
        0x0000b72c:    e59d1008    ....    LDR      r1,[r13,#8]
        0x0000b730:    e2888001    ....    ADD      r8,r8,#1
        0x0000b734:    e3a00020     ...    MOV      r0,#0x20
        0x0000b738:    e1a0e00f    ....    MOV      r14,pc
    $p
        0x0000b73c:    e1a0f002    ....    MOV      pc,r2
        0x0000b740:    e2544001    .@T.    SUBS     r4,r4,#1
        0x0000b744:    5afffff7    ...Z    BPL      0xb728
        0x0000b748:    ea00011a    ....    B        0xbbb8
        0x0000b74c:    e3140e40    @...    TST      r4,#0x400
        0x0000b750:    0a000004    ....    BEQ      0xb768
        0x0000b754:    e5950000    ....    LDR      r0,[r5,#0]
        0x0000b758:    e4901004    ....    LDR      r1,[r0],#4
        0x0000b75c:    e5850000    ....    STR      r0,[r5,#0]
        0x0000b760:    e5c18000    ....    STRB     r8,[r1,#0]
        0x0000b764:    ea000113    ....    B        0xbbb8
        0x0000b768:    e3140080    ....    TST      r4,#0x80
        0x0000b76c:    0a000006    ....    BEQ      0xb78c
        0x0000b770:    e5951000    ....    LDR      r1,[r5,#0]
        0x0000b774:    e1a0c428    (...    MOV      r12,r8,LSR #8
        0x0000b778:    e4910004    ....    LDR      r0,[r1],#4
        0x0000b77c:    e5851000    ....    STR      r1,[r5,#0]
        0x0000b780:    e5c08000    ....    STRB     r8,[r0,#0]
        0x0000b784:    e5c0c001    ....    STRB     r12,[r0,#1]
        0x0000b788:    ea00010a    ....    B        0xbbb8
        0x0000b78c:    e3140040    @...    TST      r4,#0x40
        0x0000b790:    0a000006    ....    BEQ      0xb7b0
        0x0000b794:    e5950000    ....    LDR      r0,[r5,#0]
        0x0000b798:    e1a01fc8    ....    MOV      r1,r8,ASR #31
        0x0000b79c:    e4904004    .@..    LDR      r4,[r0],#4
        0x0000b7a0:    e5850000    ....    STR      r0,[r5,#0]
        0x0000b7a4:    e5841004    ....    STR      r1,[r4,#4]
        0x0000b7a8:    e5848000    ....    STR      r8,[r4,#0]
        0x0000b7ac:    ea000101    ....    B        0xbbb8
        0x0000b7b0:    e5950000    ....    LDR      r0,[r5,#0]
        0x0000b7b4:    e3140020     ...    TST      r4,#0x20
        0x0000b7b8:    e4901004    ....    LDR      r1,[r0],#4
        0x0000b7bc:    e5850000    ....    STR      r0,[r5,#0]
        0x0000b7c0:    e5818000    ....    STR      r8,[r1,#0]
        0x0000b7c4:    ea0000fb    ....    B        0xbbb8
        0x0000b7c8:    e5950000    ....    LDR      r0,[r5,#0]
        0x0000b7cc:    e3140010    ....    TST      r4,#0x10
        0x0000b7d0:    e4901004    ....    LDR      r1,[r0],#4
        0x0000b7d4:    e5850000    ....    STR      r0,[r5,#0]
        0x0000b7d8:    e58d1000    ....    STR      r1,[r13,#0]
        0x0000b7dc:    0a00000a    ....    BEQ      0xb80c
        0x0000b7e0:    e3a0a000    ....    MOV      r10,#0
        0x0000b7e4:    e5960008    ....    LDR      r0,[r6,#8]
        0x0000b7e8:    ea000000    ....    B        0xb7f0
        0x0000b7ec:    e28aa001    ....    ADD      r10,r10,#1
        0x0000b7f0:    e15a0000    ..Z.    CMP      r10,r0
        0x0000b7f4:    aa000007    ....    BGE      0xb818
        0x0000b7f8:    e59d1000    ....    LDR      r1,[r13,#0]
        0x0000b7fc:    e7d1100a    ....    LDRB     r1,[r1,r10]
        0x0000b800:    e3510000    ..Q.    CMP      r1,#0
        0x0000b804:    1afffff8    ....    BNE      0xb7ec
        0x0000b808:    ea000002    ....    B        0xb818
        0x0000b80c:    e59d0000    ....    LDR      r0,[r13,#0]
        0x0000b810:    eb0002a6    ....    BL       strlen  ; 0xc2b0
        0x0000b814:    e1a0a000    ....    MOV      r10,r0
        0x0000b818:    e59d0004    ....    LDR      r0,[r13,#4]
        0x0000b81c:    e3140001    ....    TST      r4,#1
        0x0000b820:    e040000a    ..@.    SUB      r0,r0,r10
        0x0000b824:    e58d0004    ....    STR      r0,[r13,#4]
        0x0000b828:    1a000013    ....    BNE      0xb87c
        0x0000b82c:    e3140f40    @...    TST      r4,#0x100
        0x0000b830:    03a00020     ...    MOVEQ    r0,#0x20
        0x0000b834:    13a00030    0...    MOVNE    r0,#0x30
        0x0000b838:    e200b0ff    ....    AND      r11,r0,#0xff
        0x0000b83c:    e59d0004    ....    LDR      r0,[r13,#4]
        0x0000b840:    e2400001    ..@.    SUB      r0,r0,#1
        0x0000b844:    e58d0004    ....    STR      r0,[r13,#4]
        0x0000b848:    e3500000    ..P.    CMP      r0,#0
        0x0000b84c:    ba00000a    ....    BLT      0xb87c
        0x0000b850:    e596201c    . ..    LDR      r2,[r6,#0x1c]
        0x0000b854:    e59d1008    ....    LDR      r1,[r13,#8]
        0x0000b858:    e2888001    ....    ADD      r8,r8,#1
        0x0000b85c:    e1a0000b    ....    MOV      r0,r11
        0x0000b860:    e1a0e00f    ....    MOV      r14,pc
    $p
        0x0000b864:    e1a0f002    ....    MOV      pc,r2
        0x0000b868:    e59d0004    ....    LDR      r0,[r13,#4]
        0x0000b86c:    e2400001    ..@.    SUB      r0,r0,#1
        0x0000b870:    e58d0004    ....    STR      r0,[r13,#4]
        0x0000b874:    e3500000    ..P.    CMP      r0,#0
        0x0000b878:    aafffff4    ....    BGE      0xb850
        0x0000b87c:    e3a0b000    ....    MOV      r11,#0
        0x0000b880:    e35a0000    ..Z.    CMP      r10,#0
        0x0000b884:    da000008    ....    BLE      0xb8ac
        0x0000b888:    e59d1000    ....    LDR      r1,[r13,#0]
        0x0000b88c:    e28fe00c    ....    ADD      r14,pc,#0xc ; #0xb8a0
        0x0000b890:    e7d1000b    ....    LDRB     r0,[r1,r11]
        0x0000b894:    e596201c    . ..    LDR      r2,[r6,#0x1c]
        0x0000b898:    e59d1008    ....    LDR      r1,[r13,#8]
    $p
        0x0000b89c:    e1a0f002    ....    MOV      pc,r2
        0x0000b8a0:    e28bb001    ....    ADD      r11,r11,#1
        0x0000b8a4:    e15b000a    ..[.    CMP      r11,r10
        0x0000b8a8:    bafffff6    ....    BLT      0xb888
        0x0000b8ac:    e088800a    ....    ADD      r8,r8,r10
        0x0000b8b0:    e3140001    ....    TST      r4,#1
        0x0000b8b4:    0a0000bf    ....    BEQ      0xbbb8
        0x0000b8b8:    e59d0004    ....    LDR      r0,[r13,#4]
        0x0000b8bc:    e2504001    .@P.    SUBS     r4,r0,#1
        0x0000b8c0:    4a0000bc    ...J    BMI      0xbbb8
        0x0000b8c4:    e596201c    . ..    LDR      r2,[r6,#0x1c]
        0x0000b8c8:    e59d1008    ....    LDR      r1,[r13,#8]
        0x0000b8cc:    e2888001    ....    ADD      r8,r8,#1
        0x0000b8d0:    e3a00020     ...    MOV      r0,#0x20
        0x0000b8d4:    e1a0e00f    ....    MOV      r14,pc
    $p
        0x0000b8d8:    e1a0f002    ....    MOV      pc,r2
        0x0000b8dc:    e2544001    .@T.    SUBS     r4,r4,#1
        0x0000b8e0:    5afffff7    ...Z    BPL      0xb8c4
        0x0000b8e4:    ea0000b3    ....    B        0xbbb8
        0x0000b8e8:    e5950000    ....    LDR      r0,[r5,#0]
        0x0000b8ec:    e3140040    @...    TST      r4,#0x40
        0x0000b8f0:    0490b004    ....    LDREQ    r11,[r0],#4
        0x0000b8f4:    05850000    ....    STREQ    r0,[r5,#0]
        0x0000b8f8:    0a000005    ....    BEQ      0xb914
        0x0000b8fc:    e2801008    ....    ADD      r1,r0,#8
        0x0000b900:    e5851000    ....    STR      r1,[r5,#0]
        0x0000b904:    e5901000    ....    LDR      r1,[r0,#0]
        0x0000b908:    e5900004    ....    LDR      r0,[r0,#4]
        0x0000b90c:    e5860030    0...    STR      r0,[r6,#0x30]
        0x0000b910:    e586102c    ,...    STR      r1,[r6,#0x2c]
        0x0000b914:    e3140e40    @...    TST      r4,#0x400
        0x0000b918:    120bb0ff    ....    ANDNE    r11,r11,#0xff
        0x0000b91c:    1a000002    ....    BNE      0xb92c
        0x0000b920:    e3140080    ....    TST      r4,#0x80
        0x0000b924:    11a0b80b    ....    MOVNE    r11,r11,LSL #16
        0x0000b928:    11a0b82b    +...    MOVNE    r11,r11,LSR #16
        0x0000b92c:    e28f0fae    ....    ADD      r0,pc,#0x2b8 ; #0xbbec
        0x0000b930:    e3140008    ....    TST      r4,#8
        0x0000b934:    135b0000    ..[.    CMPNE    r11,#0
        0x0000b938:    e5860024    $...    STR      r0,[r6,#0x24]
        0x0000b93c:    128f0faf    ....    ADDNE    r0,pc,#0x2bc ; #0xbc00
        0x0000b940:    028f0fad    ....    ADDEQ    r0,pc,#0x2b4 ; #0xbbfc
        0x0000b944:    e3140010    ....    TST      r4,#0x10
        0x0000b948:    13c44f40    @O..    BICNE    r4,r4,#0x100
        0x0000b94c:    e5860004    ....    STR      r0,[r6,#4]
        0x0000b950:    ea00008f    ....    B        0xbb94
        0x0000b954:    e5950000    ....    LDR      r0,[r5,#0]
        0x0000b958:    e3140040    @...    TST      r4,#0x40
        0x0000b95c:    0490b004    ....    LDREQ    r11,[r0],#4
        0x0000b960:    05850000    ....    STREQ    r0,[r5,#0]
        0x0000b964:    0a000005    ....    BEQ      0xb980
        0x0000b968:    e2801008    ....    ADD      r1,r0,#8
        0x0000b96c:    e5851000    ....    STR      r1,[r5,#0]
        0x0000b970:    e5901000    ....    LDR      r1,[r0,#0]
        0x0000b974:    e5900004    ....    LDR      r0,[r0,#4]
        0x0000b978:    e5860030    0...    STR      r0,[r6,#0x30]
        0x0000b97c:    e586102c    ,...    STR      r1,[r6,#0x2c]
        0x0000b980:    e3140e40    @...    TST      r4,#0x400
        0x0000b984:    120bb0ff    ....    ANDNE    r11,r11,#0xff
        0x0000b988:    1a000002    ....    BNE      0xb998
        0x0000b98c:    e3140080    ....    TST      r4,#0x80
        0x0000b990:    11a0b80b    ....    MOVNE    r11,r11,LSL #16
        0x0000b994:    11a0b82b    +...    MOVNE    r11,r11,LSR #16
        0x0000b998:    e28f0f99    ....    ADD      r0,pc,#0x264 ; #0xbc04
        0x0000b99c:    e3140008    ....    TST      r4,#8
        0x0000b9a0:    135b0000    ..[.    CMPNE    r11,#0
        0x0000b9a4:    e5860024    $...    STR      r0,[r6,#0x24]
        0x0000b9a8:    128f0f9a    ....    ADDNE    r0,pc,#0x268 ; #0xbc18
        0x0000b9ac:    028f0f92    ....    ADDEQ    r0,pc,#0x248 ; #0xbbfc
        0x0000b9b0:    e3140010    ....    TST      r4,#0x10
        0x0000b9b4:    13c44f40    @O..    BICNE    r4,r4,#0x100
        0x0000b9b8:    e5860004    ....    STR      r0,[r6,#4]
        0x0000b9bc:    ea000074    t...    B        0xbb94
        0x0000b9c0:    e5950000    ....    LDR      r0,[r5,#0]
        0x0000b9c4:    e3140008    ....    TST      r4,#8
        0x0000b9c8:    e490b004    ....    LDR      r11,[r0],#4
        0x0000b9cc:    e5850000    ....    STR      r0,[r5,#0]
        0x0000b9d0:    e28f0f8b    ....    ADD      r0,pc,#0x22c ; #0xbc04
        0x0000b9d4:    e5860024    $...    STR      r0,[r6,#0x24]
        0x0000b9d8:    128f0f8f    ....    ADDNE    r0,pc,#0x23c ; #0xbc1c
        0x0000b9dc:    028f0f86    ....    ADDEQ    r0,pc,#0x218 ; #0xbbfc
        0x0000b9e0:    e5860004    ....    STR      r0,[r6,#4]
        0x0000b9e4:    e3a00008    ....    MOV      r0,#8
        0x0000b9e8:    e5860008    ....    STR      r0,[r6,#8]
        0x0000b9ec:    e3844010    .@..    ORR      r4,r4,#0x10
        0x0000b9f0:    ea000067    g...    B        0xbb94
        0x0000b9f4:    e5950000    ....    LDR      r0,[r5,#0]
        0x0000b9f8:    e3140040    @...    TST      r4,#0x40
        0x0000b9fc:    0490b004    ....    LDREQ    r11,[r0],#4
        0x0000ba00:    05850000    ....    STREQ    r0,[r5,#0]
        0x0000ba04:    0a000005    ....    BEQ      0xba20
        0x0000ba08:    e2801008    ....    ADD      r1,r0,#8
        0x0000ba0c:    e5851000    ....    STR      r1,[r5,#0]
        0x0000ba10:    e5901000    ....    LDR      r1,[r0,#0]
        0x0000ba14:    e5900004    ....    LDR      r0,[r0,#4]
        0x0000ba18:    e5860030    0...    STR      r0,[r6,#0x30]
        0x0000ba1c:    e586102c    ,...    STR      r1,[r6,#0x2c]
        0x0000ba20:    e3140e40    @...    TST      r4,#0x400
        0x0000ba24:    120bb0ff    ....    ANDNE    r11,r11,#0xff
        0x0000ba28:    1a000002    ....    BNE      0xba38
        0x0000ba2c:    e3140080    ....    TST      r4,#0x80
        0x0000ba30:    11a0b80b    ....    MOVNE    r11,r11,LSL #16
        0x0000ba34:    11a0b82b    +...    MOVNE    r11,r11,LSR #16
        0x0000ba38:    e3140008    ....    TST      r4,#8
        0x0000ba3c:    028f0f6e    n...    ADDEQ    r0,pc,#0x1b8 ; #0xbbfc
        0x0000ba40:    128f0f76    v...    ADDNE    r0,pc,#0x1d8 ; #0xbc20
        0x0000ba44:    e3140010    ....    TST      r4,#0x10
        0x0000ba48:    13c44f40    @O..    BICNE    r4,r4,#0x100
        0x0000ba4c:    e5860004    ....    STR      r0,[r6,#4]
        0x0000ba50:    ea00004f    O...    B        0xbb94
        0x0000ba54:    e5950000    ....    LDR      r0,[r5,#0]
        0x0000ba58:    e3140040    @...    TST      r4,#0x40
        0x0000ba5c:    0490b004    ....    LDREQ    r11,[r0],#4
        0x0000ba60:    05850000    ....    STREQ    r0,[r5,#0]
        0x0000ba64:    0a000005    ....    BEQ      0xba80
        0x0000ba68:    e2801008    ....    ADD      r1,r0,#8
        0x0000ba6c:    e5851000    ....    STR      r1,[r5,#0]
        0x0000ba70:    e5901000    ....    LDR      r1,[r0,#0]
        0x0000ba74:    e5900004    ....    LDR      r0,[r0,#4]
        0x0000ba78:    e5860030    0...    STR      r0,[r6,#0x30]
        0x0000ba7c:    e586102c    ,...    STR      r1,[r6,#0x2c]
        0x0000ba80:    e3140e40    @...    TST      r4,#0x400
        0x0000ba84:    120bb0ff    ....    ANDNE    r11,r11,#0xff
        0x0000ba88:    1a000002    ....    BNE      0xba98
        0x0000ba8c:    e3140080    ....    TST      r4,#0x80
        0x0000ba90:    11a0b80b    ....    MOVNE    r11,r11,LSL #16
        0x0000ba94:    11a0b82b    +...    MOVNE    r11,r11,LSR #16
        0x0000ba98:    e28f0f57    W...    ADD      r0,pc,#0x15c ; #0xbbfc
        0x0000ba9c:    e3140010    ....    TST      r4,#0x10
        0x0000baa0:    13c44f40    @O..    BICNE    r4,r4,#0x100
        0x0000baa4:    e5860004    ....    STR      r0,[r6,#4]
        0x0000baa8:    ea000039    9...    B        0xbb94
        0x0000baac:    e3140040    @...    TST      r4,#0x40
        0x0000bab0:    0a000011    ....    BEQ      0xbafc
        0x0000bab4:    e5951000    ....    LDR      r1,[r5,#0]
        0x0000bab8:    e286302c    ,0..    ADD      r3,r6,#0x2c
        0x0000babc:    e2810008    ....    ADD      r0,r1,#8
        0x0000bac0:    e5850000    ....    STR      r0,[r5,#0]
        0x0000bac4:    e8910003    ....    LDMIA    r1,{r0,r1}
        0x0000bac8:    e8830003    ....    STMIA    r3,{r0,r1}
        0x0000bacc:    e28f2f54    T/..    ADD      r2,pc,#0x150 ; #0xbc24
        0x0000bad0:    e892000c    ....    LDMIA    r2,{r2,r3}
        0x0000bad4:    e0500002    ..P.    SUBS     r0,r0,r2
        0x0000bad8:    e0d11003    ....    SBCS     r1,r1,r3
        0x0000badc:    aa000015    ....    BGE      0xbb38
        0x0000bae0:    e286102c    ,...    ADD      r1,r6,#0x2c
        0x0000bae4:    e8910003    ....    LDMIA    r1,{r0,r1}
        0x0000bae8:    e2700000    ..p.    RSBS     r0,r0,#0
        0x0000baec:    e2e11000    ....    RSC      r1,r1,#0
        0x0000baf0:    e286202c    , ..    ADD      r2,r6,#0x2c
        0x0000baf4:    e8820003    ....    STMIA    r2,{r0,r1}
        0x0000baf8:    ea00000c    ....    B        0xbb30
        0x0000bafc:    e5950000    ....    LDR      r0,[r5,#0]
        0x0000bb00:    e3140e40    @...    TST      r4,#0x400
        0x0000bb04:    e490b004    ....    LDR      r11,[r0],#4
        0x0000bb08:    e5850000    ....    STR      r0,[r5,#0]
        0x0000bb0c:    11a0bc0b    ....    MOVNE    r11,r11,LSL #24
        0x0000bb10:    11a0bc4b    K...    MOVNE    r11,r11,ASR #24
        0x0000bb14:    1a000002    ....    BNE      0xbb24
        0x0000bb18:    e3140080    ....    TST      r4,#0x80
        0x0000bb1c:    11a0b80b    ....    MOVNE    r11,r11,LSL #16
        0x0000bb20:    11a0b84b    K...    MOVNE    r11,r11,ASR #16
        0x0000bb24:    e35b0000    ..[.    CMP      r11,#0
        0x0000bb28:    b26bb000    ..k.    RSBLT    r11,r11,#0
        0x0000bb2c:    aa000001    ....    BGE      0xbb38
        0x0000bb30:    e28f00f4    ....    ADD      r0,pc,#0xf4 ; #0xbc2c
        0x0000bb34:    ea000005    ....    B        0xbb50
        0x0000bb38:    e3140002    ....    TST      r4,#2
        0x0000bb3c:    128f00ec    ....    ADDNE    r0,pc,#0xec ; #0xbc30
        0x0000bb40:    1a000002    ....    BNE      0xbb50
        0x0000bb44:    e3140004    ....    TST      r4,#4
        0x0000bb48:    028f00ac    ....    ADDEQ    r0,pc,#0xac ; #0xbbfc
        0x0000bb4c:    128f00e0    ....    ADDNE    r0,pc,#0xe0 ; #0xbc34
        0x0000bb50:    e3140010    ....    TST      r4,#0x10
        0x0000bb54:    13c44f40    @O..    BICNE    r4,r4,#0x100
        0x0000bb58:    e5860004    ....    STR      r0,[r6,#4]
        0x0000bb5c:    ea00000c    ....    B        0xbb94
        0x0000bb60:    e3844f80    .O..    ORR      r4,r4,#0x200
        0x0000bb64:    e3140010    ....    TST      r4,#0x10
        0x0000bb68:    03a00006    ....    MOVEQ    r0,#6
        0x0000bb6c:    05860008    ....    STREQ    r0,[r6,#8]
        0x0000bb70:    e5950000    ....    LDR      r0,[r5,#0]
        0x0000bb74:    e3a0b000    ....    MOV      r11,#0
        0x0000bb78:    e2801008    ....    ADD      r1,r0,#8
        0x0000bb7c:    e5851000    ....    STR      r1,[r5,#0]
        0x0000bb80:    e5901000    ....    LDR      r1,[r0,#0]
        0x0000bb84:    e5900004    ....    LDR      r0,[r0,#4]
        0x0000bb88:    e5860018    ....    STR      r0,[r6,#0x18]
        0x0000bb8c:    e5861014    ....    STR      r1,[r6,#0x14]
        0x0000bb90:    e5862004    . ..    STR      r2,[r6,#4]
        0x0000bb94:    e59d0004    ....    LDR      r0,[r13,#4]
        0x0000bb98:    e1a0300b    .0..    MOV      r3,r11
        0x0000bb9c:    e5860028    (...    STR      r0,[r6,#0x28]
        0x0000bba0:    e5864000    .@..    STR      r4,[r6,#0]
        0x0000bba4:    e59d0008    ....    LDR      r0,[r13,#8]
        0x0000bba8:    e1a02006    . ..    MOV      r2,r6
        0x0000bbac:    e1a0100a    ....    MOV      r1,r10
        0x0000bbb0:    eb000020     ...    BL       _printf_display  ; 0xbc38
        0x0000bbb4:    e0808008    ....    ADD      r8,r0,r8
        0x0000bbb8:    e4d70001    ....    LDRB     r0,[r7],#1
        0x0000bbbc:    e3500000    ..P.    CMP      r0,#0
        0x0000bbc0:    1afffe25    %...    BNE      0xb45c
        0x0000bbc4:    e5961020     ...    LDR      r1,[r6,#0x20]
        0x0000bbc8:    e59d0008    ....    LDR      r0,[r13,#8]
        0x0000bbcc:    e1a0e00f    ....    MOV      r14,pc
    $p
        0x0000bbd0:    e1a0f001    ....    MOV      pc,r1
        0x0000bbd4:    e3500000    ..P.    CMP      r0,#0
        0x0000bbd8:    01a00008    ....    MOVEQ    r0,r8
        0x0000bbdc:    e28dd018    ....    ADD      r13,r13,#0x18
        0x0000bbe0:    e8bd01f0    ....    LDMFD    r13!,{r4-r8}
        0x0000bbe4:    13e00000    ....    MVNNE    r0,#0
        0x0000bbe8:    e8bd8c00    ....    LDMFD    r13!,{r10,r11,pc}
    $d
        0x0000bbec:    33323130    0123    DCD    858927408
        0x0000bbf0:    37363534    4567    DCD    926299444
        0x0000bbf4:    42413938    89AB    DCD    1111570744
        0x0000bbf8:    46454443    CDEF    DCD    1178944579
        0x0000bbfc:    00000000    ....    DCD    0
        0x0000bc00:    00005830    0X..    DCD    22576
        0x0000bc04:    33323130    0123    DCD    858927408
        0x0000bc08:    37363534    4567    DCD    926299444
        0x0000bc0c:    62613938    89ab    DCD    1650538808
        0x0000bc10:    66656463    cdef    DCD    1717920867
        0x0000bc14:    00000000    ....    DCD    0
        0x0000bc18:    00007830    0x..    DCD    30768
        0x0000bc1c:    00000040    @...    DCD    64
        0x0000bc20:    00000030    0...    DCD    48
        0x0000bc24:    00000000    ....    DCD    0
        0x0000bc28:    00000000    ....    DCD    0
        0x0000bc2c:    0000002d    -...    DCD    45
        0x0000bc30:    0000002b    +...    DCD    43
        0x0000bc34:    00000020     ...    DCD    32
    _printf_display
    $a
        0x0000bc38:    e92d4d80    .M-.    STMFD    r13!,{r7,r8,r10,r11,r14}
        0x0000bc3c:    e92d0070    p.-.    STMFD    r13!,{r4-r6}
        0x0000bc40:    e1a07000    .p..    MOV      r7,r0
        0x0000bc44:    e1a00001    ....    MOV      r0,r1
        0x0000bc48:    e5928000    ....    LDR      r8,[r2,#0]
        0x0000bc4c:    e3e01000    ....    MVN      r1,#0
        0x0000bc50:    e24dd028    (.M.    SUB      r13,r13,#0x28
        0x0000bc54:    e582100c    ....    STR      r1,[r2,#0xc]
        0x0000bc58:    e5821010    ....    STR      r1,[r2,#0x10]
        0x0000bc5c:    e3180f84    ....    TST      r8,#0x210
        0x0000bc60:    03a01001    ....    MOVEQ    r1,#1
        0x0000bc64:    e1a04002    .@..    MOV      r4,r2
        0x0000bc68:    05841008    ....    STREQ    r1,[r4,#8]
        0x0000bc6c:    e24f1050    P.O.    SUB      r1,pc,#0x50 ; #0xbc24
        0x0000bc70:    e3500067    g.P.    CMP      r0,#0x67
        0x0000bc74:    e3a06000    .`..    MOV      r6,#0
        0x0000bc78:    e3a05000    .P..    MOV      r5,#0
        0x0000bc7c:    0a00000c    ....    BEQ      0xbcb4
        0x0000bc80:    ca00001b    ....    BGT      0xbcf4
        0x0000bc84:    e3500064    d.P.    CMP      r0,#0x64
        0x0000bc88:    0a000078    x...    BEQ      0xbe70
        0x0000bc8c:    ca000005    ....    BGT      0xbca8
        0x0000bc90:    e3500045    E.P.    CMP      r0,#0x45
        0x0000bc94:    13500047    G.P.    CMPNE    r0,#0x47
        0x0000bc98:    0a000005    ....    BEQ      0xbcb4
        0x0000bc9c:    e3500058    X.P.    CMP      r0,#0x58
        0x0000bca0:    1a000007    ....    BNE      0xbcc4
        0x0000bca4:    ea000028    (...    B        0xbd4c
        0x0000bca8:    e3500065    e.P.    CMP      r0,#0x65
        0x0000bcac:    13500066    f.P.    CMPNE    r0,#0x66
        0x0000bcb0:    1a000003    ....    BNE      0xbcc4
        0x0000bcb4:    e1a02004    . ..    MOV      r2,r4
        0x0000bcb8:    e28d1008    ....    ADD      r1,r13,#8
        0x0000bcbc:    eb000278    x...    BL       _fp_display_gate  ; 0xc6a4
        0x0000bcc0:    e1a06000    .`..    MOV      r6,r0
        0x0000bcc4:    e3180f80    ....    TST      r8,#0x200
        0x0000bcc8:    e594a028    (...    LDR      r10,[r4,#0x28]
        0x0000bccc:    0a00008e    ....    BEQ      0xbf0c
        0x0000bcd0:    e594000c    ....    LDR      r0,[r4,#0xc]
        0x0000bcd4:    e3a0b000    ....    MOV      r11,#0
        0x0000bcd8:    e3500000    ..P.    CMP      r0,#0
        0x0000bcdc:    c240b001    ..@.    SUBGT    r11,r0,#1
        0x0000bce0:    e5940010    ....    LDR      r0,[r4,#0x10]
        0x0000bce4:    e3500000    ..P.    CMP      r0,#0
        0x0000bce8:    c080000b    ....    ADDGT    r0,r0,r11
        0x0000bcec:    c240b001    ..@.    SUBGT    r11,r0,#1
        0x0000bcf0:    ea000089    ....    B        0xbf1c
        0x0000bcf4:    e3500070    p.P.    CMP      r0,#0x70
        0x0000bcf8:    0a000013    ....    BEQ      0xbd4c
        0x0000bcfc:    ca00000e    ....    BGT      0xbd3c
        0x0000bd00:    e3500069    i.P.    CMP      r0,#0x69
        0x0000bd04:    0a000059    Y...    BEQ      0xbe70
        0x0000bd08:    e350006f    o.P.    CMP      r0,#0x6f
        0x0000bd0c:    1affffec    ....    BNE      0xbcc4
        0x0000bd10:    e3180040    @...    TST      r8,#0x40
        0x0000bd14:    0a000046    F...    BEQ      0xbe34
        0x0000bd18:    e24f10fc    ..O.    SUB      r1,pc,#0xfc ; #0xbc24
        0x0000bd1c:    e594a02c    ,...    LDR      r10,[r4,#0x2c]
        0x0000bd20:    e594b030    0...    LDR      r11,[r4,#0x30]
        0x0000bd24:    e891000c    ....    LDMIA    r1,{r2,r3}
        0x0000bd28:    e1a0000a    ....    MOV      r0,r10
        0x0000bd2c:    e15b0003    ..[.    CMP      r11,r3
        0x0000bd30:    01500002    ..P.    CMPEQ    r0,r2
        0x0000bd34:    0a000048    H...    BEQ      0xbe5c
        0x0000bd38:    ea00002b    +...    B        0xbdec
        0x0000bd3c:    e3500075    u.P.    CMP      r0,#0x75
        0x0000bd40:    0a00004a    J...    BEQ      0xbe70
        0x0000bd44:    e3500078    x.P.    CMP      r0,#0x78
        0x0000bd48:    1affffdd    ....    BNE      0xbcc4
        0x0000bd4c:    e3180040    @...    TST      r8,#0x40
        0x0000bd50:    0a000019    ....    BEQ      0xbdbc
        0x0000bd54:    e24f1f4e    N.O.    SUB      r1,pc,#0x138 ; #0xbc24
        0x0000bd58:    e594a02c    ,...    LDR      r10,[r4,#0x2c]
        0x0000bd5c:    e594b030    0...    LDR      r11,[r4,#0x30]
        0x0000bd60:    e891000c    ....    LDMIA    r1,{r2,r3}
        0x0000bd64:    e1a0000a    ....    MOV      r0,r10
        0x0000bd68:    e15b0003    ..[.    CMP      r11,r3
        0x0000bd6c:    01500002    ..P.    CMPEQ    r0,r2
        0x0000bd70:    0affffd3    ....    BEQ      0xbcc4
        0x0000bd74:    e1a0100b    ....    MOV      r1,r11
        0x0000bd78:    e5941024    $...    LDR      r1,[r4,#0x24]
        0x0000bd7c:    e20a000f    ....    AND      r0,r10,#0xf
        0x0000bd80:    e7d11000    ....    LDRB     r1,[r1,r0]
        0x0000bd84:    e1a00006    ....    MOV      r0,r6
        0x0000bd88:    e28d2008    . ..    ADD      r2,r13,#8
        0x0000bd8c:    e7c21000    ....    STRB     r1,[r2,r0]
        0x0000bd90:    e1a0022a    *...    MOV      r0,r10,LSR #4
        0x0000bd94:    e180ae0b    ....    ORR      r10,r0,r11,LSL #28
        0x0000bd98:    e24f0f5f    _.O.    SUB      r0,pc,#0x17c ; #0xbc24
        0x0000bd9c:    e890000c    ....    LDMIA    r0,{r2,r3}
        0x0000bda0:    e1a0b22b    +...    MOV      r11,r11,LSR #4
        0x0000bda4:    e15b0003    ..[.    CMP      r11,r3
        0x0000bda8:    e1a0000a    ....    MOV      r0,r10
        0x0000bdac:    01500002    ..P.    CMPEQ    r0,r2
        0x0000bdb0:    e2866001    .`..    ADD      r6,r6,#1
        0x0000bdb4:    0affffc2    ....    BEQ      0xbcc4
        0x0000bdb8:    eaffffed    ....    B        0xbd74
        0x0000bdbc:    e3530000    ..S.    CMP      r3,#0
        0x0000bdc0:    0affffbf    ....    BEQ      0xbcc4
        0x0000bdc4:    e28da008    ....    ADD      r10,r13,#8
        0x0000bdc8:    e203100f    ....    AND      r1,r3,#0xf
        0x0000bdcc:    e5940024    $...    LDR      r0,[r4,#0x24]
        0x0000bdd0:    e1b03223    #2..    MOVS     r3,r3,LSR #4
        0x0000bdd4:    e7d01001    ....    LDRB     r1,[r0,r1]
        0x0000bdd8:    e1a00006    ....    MOV      r0,r6
        0x0000bddc:    e2866001    .`..    ADD      r6,r6,#1
        0x0000bde0:    e7ca1000    ....    STRB     r1,[r10,r0]
        0x0000bde4:    0affffb6    ....    BEQ      0xbcc4
        0x0000bde8:    eafffff6    ....    B        0xbdc8
        0x0000bdec:    e1a0100b    ....    MOV      r1,r11
        0x0000bdf0:    e5941024    $...    LDR      r1,[r4,#0x24]
        0x0000bdf4:    e20a0007    ....    AND      r0,r10,#7
        0x0000bdf8:    e7d11000    ....    LDRB     r1,[r1,r0]
        0x0000bdfc:    e1a00006    ....    MOV      r0,r6
        0x0000be00:    e28d2008    . ..    ADD      r2,r13,#8
        0x0000be04:    e7c21000    ....    STRB     r1,[r2,r0]
        0x0000be08:    e1a001aa    ....    MOV      r0,r10,LSR #3
        0x0000be0c:    e180ae8b    ....    ORR      r10,r0,r11,LSL #29
        0x0000be10:    e24f0f7d    }.O.    SUB      r0,pc,#0x1f4 ; #0xbc24
        0x0000be14:    e890000c    ....    LDMIA    r0,{r2,r3}
        0x0000be18:    e1a0b1ab    ....    MOV      r11,r11,LSR #3
        0x0000be1c:    e15b0003    ..[.    CMP      r11,r3
        0x0000be20:    e1a0000a    ....    MOV      r0,r10
        0x0000be24:    01500002    ..P.    CMPEQ    r0,r2
        0x0000be28:    e2866001    .`..    ADD      r6,r6,#1
        0x0000be2c:    1affffee    ....    BNE      0xbdec
        0x0000be30:    ea000009    ....    B        0xbe5c
        0x0000be34:    e3530000    ..S.    CMP      r3,#0
        0x0000be38:    0a000007    ....    BEQ      0xbe5c
        0x0000be3c:    e28da008    ....    ADD      r10,r13,#8
        0x0000be40:    e2030007    ....    AND      r0,r3,#7
        0x0000be44:    e2801030    0...    ADD      r1,r0,#0x30
        0x0000be48:    e1a00006    ....    MOV      r0,r6
        0x0000be4c:    e7ca1000    ....    STRB     r1,[r10,r0]
        0x0000be50:    e2866001    .`..    ADD      r6,r6,#1
        0x0000be54:    e1b031a3    .1..    MOVS     r3,r3,LSR #3
        0x0000be58:    1afffff8    ....    BNE      0xbe40
        0x0000be5c:    e3180008    ....    TST      r8,#8
        0x0000be60:    15940008    ....    LDRNE    r0,[r4,#8]
        0x0000be64:    12400001    ..@.    SUBNE    r0,r0,#1
        0x0000be68:    15840008    ....    STRNE    r0,[r4,#8]
        0x0000be6c:    eaffff94    ....    B        0xbcc4
        0x0000be70:    e3180040    @...    TST      r8,#0x40
        0x0000be74:    0a000018    ....    BEQ      0xbedc
        0x0000be78:    e24f1f97    ..O.    SUB      r1,pc,#0x25c ; #0xbc24
        0x0000be7c:    e594a02c    ,...    LDR      r10,[r4,#0x2c]
        0x0000be80:    e594b030    0...    LDR      r11,[r4,#0x30]
        0x0000be84:    e891000c    ....    LDMIA    r1,{r2,r3}
        0x0000be88:    e1a0000a    ....    MOV      r0,r10
        0x0000be8c:    e15b0003    ..[.    CMP      r11,r3
        0x0000be90:    01500002    ..P.    CMPEQ    r0,r2
        0x0000be94:    0affff8a    ....    BEQ      0xbcc4
        0x0000be98:    e1a0100b    ....    MOV      r1,r11
        0x0000be9c:    e1a0000a    ....    MOV      r0,r10
        0x0000bea0:    eb0000c7    ....    BL       _ll_udiv10  ; 0xc1c4
        0x0000bea4:    e1a0b001    ....    MOV      r11,r1
        0x0000bea8:    e1a0a000    ....    MOV      r10,r0
        0x0000beac:    e1a00006    ....    MOV      r0,r6
        0x0000beb0:    e2821030    0...    ADD      r1,r2,#0x30
        0x0000beb4:    e28d2008    . ..    ADD      r2,r13,#8
        0x0000beb8:    e7c21000    ....    STRB     r1,[r2,r0]
        0x0000bebc:    e24f0fa8    ..O.    SUB      r0,pc,#0x2a0 ; #0xbc24
        0x0000bec0:    e890000c    ....    LDMIA    r0,{r2,r3}
        0x0000bec4:    e1a0000a    ....    MOV      r0,r10
        0x0000bec8:    e15b0003    ..[.    CMP      r11,r3
        0x0000becc:    01500002    ..P.    CMPEQ    r0,r2
        0x0000bed0:    e2866001    .`..    ADD      r6,r6,#1
        0x0000bed4:    0affff7a    z...    BEQ      0xbcc4
        0x0000bed8:    eaffffee    ....    B        0xbe98
        0x0000bedc:    e3530000    ..S.    CMP      r3,#0
        0x0000bee0:    0affff77    w...    BEQ      0xbcc4
        0x0000bee4:    e28da008    ....    ADD      r10,r13,#8
        0x0000bee8:    e1a00003    ....    MOV      r0,r3
        0x0000beec:    eb0000e4    ....    BL       __rt_udiv10  ; 0xc284
        0x0000bef0:    e2812030    0 ..    ADD      r2,r1,#0x30
        0x0000bef4:    e1a01006    ....    MOV      r1,r6
        0x0000bef8:    e7ca2001    . ..    STRB     r2,[r10,r1]
        0x0000befc:    e2866001    .`..    ADD      r6,r6,#1
        0x0000bf00:    e1b03000    .0..    MOVS     r3,r0
        0x0000bf04:    0affff6e    n...    BEQ      0xbcc4
        0x0000bf08:    eafffff6    ....    B        0xbee8
        0x0000bf0c:    e5940008    ....    LDR      r0,[r4,#8]
        0x0000bf10:    e040b006    ..@.    SUB      r11,r0,r6
        0x0000bf14:    e35b0000    ..[.    CMP      r11,#0
        0x0000bf18:    b3a0b000    ....    MOVLT    r11,#0
        0x0000bf1c:    e5940004    ....    LDR      r0,[r4,#4]
        0x0000bf20:    eb0000e2    ....    BL       strlen  ; 0xc2b0
        0x0000bf24:    e08b1006    ....    ADD      r1,r11,r6
        0x0000bf28:    e0800001    ....    ADD      r0,r0,r1
        0x0000bf2c:    e3180f40    @...    TST      r8,#0x100
        0x0000bf30:    03180001    ....    TSTEQ    r8,#1
        0x0000bf34:    e04aa000    ..J.    SUB      r10,r10,r0
        0x0000bf38:    1a00000b    ....    BNE      0xbf6c
        0x0000bf3c:    e3a00020     ...    MOV      r0,#0x20
        0x0000bf40:    e58d0004    ....    STR      r0,[r13,#4]
        0x0000bf44:    e25aa001    ..Z.    SUBS     r10,r10,#1
        0x0000bf48:    4a000007    ...J    BMI      0xbf6c
        0x0000bf4c:    e594201c    . ..    LDR      r2,[r4,#0x1c]
        0x0000bf50:    e59d0004    ....    LDR      r0,[r13,#4]
        0x0000bf54:    e2855001    .P..    ADD      r5,r5,#1
        0x0000bf58:    e1a01007    ....    MOV      r1,r7
        0x0000bf5c:    e1a0e00f    ....    MOV      r14,pc
    $p
        0x0000bf60:    e1a0f002    ....    MOV      pc,r2
        0x0000bf64:    e25aa001    ..Z.    SUBS     r10,r10,#1
        0x0000bf68:    5afffff7    ...Z    BPL      0xbf4c
        0x0000bf6c:    e5941004    ....    LDR      r1,[r4,#4]
        0x0000bf70:    e4d10001    ....    LDRB     r0,[r1],#1
        0x0000bf74:    e58d1004    ....    STR      r1,[r13,#4]
        0x0000bf78:    e3500000    ..P.    CMP      r0,#0
        0x0000bf7c:    0a000009    ....    BEQ      0xbfa8
        0x0000bf80:    e594201c    . ..    LDR      r2,[r4,#0x1c]
        0x0000bf84:    e1a01007    ....    MOV      r1,r7
        0x0000bf88:    e1a0e00f    ....    MOV      r14,pc
    $p
        0x0000bf8c:    e1a0f002    ....    MOV      pc,r2
        0x0000bf90:    e59d1004    ....    LDR      r1,[r13,#4]
        0x0000bf94:    e2855001    .P..    ADD      r5,r5,#1
        0x0000bf98:    e4d10001    ....    LDRB     r0,[r1],#1
        0x0000bf9c:    e58d1004    ....    STR      r1,[r13,#4]
        0x0000bfa0:    e3500000    ..P.    CMP      r0,#0
        0x0000bfa4:    1afffff5    ....    BNE      0xbf80
        0x0000bfa8:    e3180001    ....    TST      r8,#1
        0x0000bfac:    1a00000e    ....    BNE      0xbfec
        0x0000bfb0:    e3180f40    @...    TST      r8,#0x100
        0x0000bfb4:    03a00020     ...    MOVEQ    r0,#0x20
        0x0000bfb8:    13a00030    0...    MOVNE    r0,#0x30
        0x0000bfbc:    e20000ff    ....    AND      r0,r0,#0xff
        0x0000bfc0:    e58d0004    ....    STR      r0,[r13,#4]
        0x0000bfc4:    e25aa001    ..Z.    SUBS     r10,r10,#1
        0x0000bfc8:    4a000007    ...J    BMI      0xbfec
        0x0000bfcc:    e594201c    . ..    LDR      r2,[r4,#0x1c]
        0x0000bfd0:    e59d0004    ....    LDR      r0,[r13,#4]
        0x0000bfd4:    e2855001    .P..    ADD      r5,r5,#1
        0x0000bfd8:    e1a01007    ....    MOV      r1,r7
        0x0000bfdc:    e1a0e00f    ....    MOV      r14,pc
    $p
        0x0000bfe0:    e1a0f002    ....    MOV      pc,r2
        0x0000bfe4:    e25aa001    ..Z.    SUBS     r10,r10,#1
        0x0000bfe8:    5afffff7    ...Z    BPL      0xbfcc
        0x0000bfec:    e3180f80    ....    TST      r8,#0x200
        0x0000bff0:    0a000034    4...    BEQ      0xc0c8
        0x0000bff4:    e3a0b000    ....    MOV      r11,#0
        0x0000bff8:    e3560000    ..V.    CMP      r6,#0
        0x0000bffc:    da000049    I...    BLE      0xc128
        0x0000c000:    e28d0008    ....    ADD      r0,r13,#8
        0x0000c004:    e7d0000b    ....    LDRB     r0,[r0,r11]
        0x0000c008:    e350003c    <.P.    CMP      r0,#0x3c
        0x0000c00c:    0a000007    ....    BEQ      0xc030
        0x0000c010:    e350003e    >.P.    CMP      r0,#0x3e
        0x0000c014:    1a000022    "...    BNE      0xc0a4
        0x0000c018:    e5940010    ....    LDR      r0,[r4,#0x10]
        0x0000c01c:    e2400001    ..@.    SUB      r0,r0,#1
        0x0000c020:    e5840010    ....    STR      r0,[r4,#0x10]
        0x0000c024:    e3500000    ..P.    CMP      r0,#0
        0x0000c028:    ba000022    "...    BLT      0xc0b8
        0x0000c02c:    ea000010    ....    B        0xc074
        0x0000c030:    e594000c    ....    LDR      r0,[r4,#0xc]
        0x0000c034:    e2400001    ..@.    SUB      r0,r0,#1
        0x0000c038:    e584000c    ....    STR      r0,[r4,#0xc]
        0x0000c03c:    e3500000    ..P.    CMP      r0,#0
        0x0000c040:    ba00001c    ....    BLT      0xc0b8
        0x0000c044:    e594201c    . ..    LDR      r2,[r4,#0x1c]
        0x0000c048:    e2855001    .P..    ADD      r5,r5,#1
        0x0000c04c:    e1a01007    ....    MOV      r1,r7
        0x0000c050:    e3a00030    0...    MOV      r0,#0x30
        0x0000c054:    e1a0e00f    ....    MOV      r14,pc
    $p
        0x0000c058:    e1a0f002    ....    MOV      pc,r2
        0x0000c05c:    e594000c    ....    LDR      r0,[r4,#0xc]
        0x0000c060:    e2400001    ..@.    SUB      r0,r0,#1
        0x0000c064:    e584000c    ....    STR      r0,[r4,#0xc]
        0x0000c068:    e3500000    ..P.    CMP      r0,#0
        0x0000c06c:    aafffff4    ....    BGE      0xc044
        0x0000c070:    ea000010    ....    B        0xc0b8
        0x0000c074:    e594201c    . ..    LDR      r2,[r4,#0x1c]
        0x0000c078:    e2855001    .P..    ADD      r5,r5,#1
        0x0000c07c:    e1a01007    ....    MOV      r1,r7
        0x0000c080:    e3a00030    0...    MOV      r0,#0x30
        0x0000c084:    e1a0e00f    ....    MOV      r14,pc
    $p
        0x0000c088:    e1a0f002    ....    MOV      pc,r2
        0x0000c08c:    e5940010    ....    LDR      r0,[r4,#0x10]
        0x0000c090:    e2400001    ..@.    SUB      r0,r0,#1
        0x0000c094:    e5840010    ....    STR      r0,[r4,#0x10]
        0x0000c098:    e3500000    ..P.    CMP      r0,#0
        0x0000c09c:    aafffff4    ....    BGE      0xc074
        0x0000c0a0:    ea000004    ....    B        0xc0b8
        0x0000c0a4:    e594201c    . ..    LDR      r2,[r4,#0x1c]
        0x0000c0a8:    e1a01007    ....    MOV      r1,r7
        0x0000c0ac:    e1a0e00f    ....    MOV      r14,pc
    $p
        0x0000c0b0:    e1a0f002    ....    MOV      pc,r2
        0x0000c0b4:    e2855001    .P..    ADD      r5,r5,#1
        0x0000c0b8:    e28bb001    ....    ADD      r11,r11,#1
        0x0000c0bc:    e15b0006    ..[.    CMP      r11,r6
        0x0000c0c0:    baffffce    ....    BLT      0xc000
        0x0000c0c4:    ea000017    ....    B        0xc128
        0x0000c0c8:    e25bb001    ..[.    SUBS     r11,r11,#1
        0x0000c0cc:    4a000007    ...J    BMI      0xc0f0
        0x0000c0d0:    e594201c    . ..    LDR      r2,[r4,#0x1c]
        0x0000c0d4:    e2855001    .P..    ADD      r5,r5,#1
        0x0000c0d8:    e1a01007    ....    MOV      r1,r7
        0x0000c0dc:    e3a00030    0...    MOV      r0,#0x30
        0x0000c0e0:    e1a0e00f    ....    MOV      r14,pc
    $p
        0x0000c0e4:    e1a0f002    ....    MOV      pc,r2
        0x0000c0e8:    e25bb001    ..[.    SUBS     r11,r11,#1
        0x0000c0ec:    5afffff7    ...Z    BPL      0xc0d0
        0x0000c0f0:    e0855006    .P..    ADD      r5,r5,r6
        0x0000c0f4:    e246b001    ..F.    SUB      r11,r6,#1
        0x0000c0f8:    e3560000    ..V.    CMP      r6,#0
        0x0000c0fc:    da000009    ....    BLE      0xc128
        0x0000c100:    e28d6008    .`..    ADD      r6,r13,#8
        0x0000c104:    e7d6000b    ....    LDRB     r0,[r6,r11]
        0x0000c108:    e594201c    . ..    LDR      r2,[r4,#0x1c]
        0x0000c10c:    e1a01007    ....    MOV      r1,r7
        0x0000c110:    e1a0e00f    ....    MOV      r14,pc
    $p
        0x0000c114:    e1a0f002    ....    MOV      pc,r2
        0x0000c118:    e1a0000b    ....    MOV      r0,r11
        0x0000c11c:    e3500000    ..P.    CMP      r0,#0
        0x0000c120:    e24bb001    ..K.    SUB      r11,r11,#1
        0x0000c124:    cafffff6    ....    BGT      0xc104
        0x0000c128:    e3180001    ....    TST      r8,#1
        0x0000c12c:    0a000009    ....    BEQ      0xc158
        0x0000c130:    e25a6001    .`Z.    SUBS     r6,r10,#1
        0x0000c134:    4a000007    ...J    BMI      0xc158
        0x0000c138:    e594201c    . ..    LDR      r2,[r4,#0x1c]
        0x0000c13c:    e2855001    .P..    ADD      r5,r5,#1
        0x0000c140:    e1a01007    ....    MOV      r1,r7
        0x0000c144:    e3a00020     ...    MOV      r0,#0x20
        0x0000c148:    e1a0e00f    ....    MOV      r14,pc
    $p
        0x0000c14c:    e1a0f002    ....    MOV      pc,r2
        0x0000c150:    e2566001    .`V.    SUBS     r6,r6,#1
        0x0000c154:    5afffff7    ...Z    BPL      0xc138
        0x0000c158:    e1a00005    ....    MOV      r0,r5
        0x0000c15c:    e28dd028    (...    ADD      r13,r13,#0x28
        0x0000c160:    e8bd01f0    ....    LDMFD    r13!,{r4-r8}
        0x0000c164:    e8bd8c00    ....    LDMFD    r13!,{r10,r11,pc}
    __user_libspace
    $a
    .text
        0x0000c168:    e59f0000    ....    LDR      r0,0xc170
        0x0000c16c:    e1a0f00e    ....    MOV      pc,r14
    $d
        0x0000c170:    00010558    X...    DCD    66904
    __rt_div0
    $a
    .text
        0x0000c174:    e3a00002    ....    MOV      r0,#2
        0x0000c178:    e3a01002    ....    MOV      r1,#2
        0x0000c17c:    ea00003a    :...    B        __32__rt_raise  ; 0xc26c
    __user_initial_stackheap
    .text
        0x0000c180:    e92d4000    .@-.    STMFD    r13!,{r14}
        0x0000c184:    e24dd014    ..M.    SUB      r13,r13,#0x14
        0x0000c188:    e1a0100d    ....    MOV      r1,r13
        0x0000c18c:    e28d2004    . ..    ADD      r2,r13,#4
        0x0000c190:    e5812000    . ..    STR      r2,[r1,#0]
        0x0000c194:    e3a00016    ....    MOV      r0,#0x16
        0x0000c198:    ef123456    V4..    SWI      0x123456
        0x0000c19c:    e59d0004    ....    LDR      r0,[r13,#4]
        0x0000c1a0:    e59d100c    ....    LDR      r1,[r13,#0xc]
        0x0000c1a4:    e59d2008    . ..    LDR      r2,[r13,#8]
        0x0000c1a8:    e59d3010    .0..    LDR      r3,[r13,#0x10]
        0x0000c1ac:    e3500000    ..P.    CMP      r0,#0
        0x0000c1b0:    059f0008    ....    LDREQ    r0,0xc1c0
        0x0000c1b4:    e28dd014    ....    ADD      r13,r13,#0x14
        0x0000c1b8:    e8bd8000    ....    LDMFD    r13!,{pc}
    $d
    $f
        0x0000c1bc:    0000015c    \...    DCD    348
    _RW_Limit
        0x0000c1c0:    000105b8    ....    DCD    67000
    _ll_udiv10
    $a
    .text
        0x0000c1c4:    e92d4030    0@-.    STMFD    r13!,{r4,r5,r14}
        0x0000c1c8:    e250200a    . P.    SUBS     r2,r0,#0xa
        0x0000c1cc:    e2d13000    .0..    SBCS     r3,r1,#0
        0x0000c1d0:    e1a0e120     ...    MOV      r14,r0,LSR #2
        0x0000c1d4:    e18eef01    ....    ORR      r14,r14,r1,LSL #30
        0x0000c1d8:    e050000e    ..P.    SUBS     r0,r0,r14
        0x0000c1dc:    e0c11121    !...    SBC      r1,r1,r1,LSR #2
        0x0000c1e0:    e1a0e220     ...    MOV      r14,r0,LSR #4
        0x0000c1e4:    e18eee01    ....    ORR      r14,r14,r1,LSL #28
        0x0000c1e8:    e090000e    ....    ADDS     r0,r0,r14
        0x0000c1ec:    e0a11221    !...    ADC      r1,r1,r1,LSR #4
        0x0000c1f0:    e1a0e420     ...    MOV      r14,r0,LSR #8
        0x0000c1f4:    e18eec01    ....    ORR      r14,r14,r1,LSL #24
        0x0000c1f8:    e090000e    ....    ADDS     r0,r0,r14
        0x0000c1fc:    e0a11421    !...    ADC      r1,r1,r1,LSR #8
        0x0000c200:    e1a0e820     ...    MOV      r14,r0,LSR #16
        0x0000c204:    e18ee801    ....    ORR      r14,r14,r1,LSL #16
        0x0000c208:    e090000e    ....    ADDS     r0,r0,r14
        0x0000c20c:    e0a11821    !...    ADC      r1,r1,r1,LSR #16
        0x0000c210:    e0900001    ....    ADDS     r0,r0,r1
        0x0000c214:    e2a11000    ....    ADC      r1,r1,#0
        0x0000c218:    e1a001a0    ....    MOV      r0,r0,LSR #3
        0x0000c21c:    e1800e81    ....    ORR      r0,r0,r1,LSL #29
        0x0000c220:    e1a011a1    ....    MOV      r1,r1,LSR #3
        0x0000c224:    e1a04101    .A..    MOV      r4,r1,LSL #2
        0x0000c228:    e1844f20     O..    ORR      r4,r4,r0,LSR #30
        0x0000c22c:    e0905100    .Q..    ADDS     r5,r0,r0,LSL #2
        0x0000c230:    e0a44001    .@..    ADC      r4,r4,r1
        0x0000c234:    e0955005    .P..    ADDS     r5,r5,r5
        0x0000c238:    e0a44004    .@..    ADC      r4,r4,r4
        0x0000c23c:    e0522005    . R.    SUBS     r2,r2,r5
        0x0000c240:    e0d33004    .0..    SBCS     r3,r3,r4
        0x0000c244:    e3a03000    .0..    MOV      r3,#0
        0x0000c248:    4282200a    . .B    ADDMI    r2,r2,#0xa
        0x0000c24c:    48bd8030    0..H    LDMMIFD  r13!,{r4,r5,pc}
        0x0000c250:    e2900001    ....    ADDS     r0,r0,#1
        0x0000c254:    e2a11000    ....    ADC      r1,r1,#0
        0x0000c258:    e8bd8030    0...    LDMFD    r13!,{r4,r5,pc}
    __rt_fp_status_addr
    .text
        0x0000c25c:    e92d4010    .@-.    STMFD    r13!,{r4,r14}
        0x0000c260:    ebffffc0    ....    BL       __user_libspace  ; 0xc168
        0x0000c264:    e2800004    ....    ADD      r0,r0,#4
        0x0000c268:    e8bd8010    ....    LDMFD    r13!,{r4,pc}
    __32__rt_raise
    __rt_raise
    .text
        0x0000c26c:    e92d4010    .@-.    STMFD    r13!,{r4,r14}
        0x0000c270:    eb000029    )...    BL       __raise  ; 0xc31c
        0x0000c274:    e3500000    ..P.    CMP      r0,#0
        0x0000c278:    08bd8010    ....    LDMEQFD  r13!,{r4,pc}
        0x0000c27c:    e8bd4010    .@..    LDMFD    r13!,{r4,r14}
        0x0000c280:    ea000040    @...    B        _sys_exit  ; 0xc388
    __rt_udiv10
    .text
        0x0000c284:    e240100a    ..@.    SUB      r1,r0,#0xa
        0x0000c288:    e0400120     .@.    SUB      r0,r0,r0,LSR #2
        0x0000c28c:    e0800220     ...    ADD      r0,r0,r0,LSR #4
        0x0000c290:    e0800420     ...    ADD      r0,r0,r0,LSR #8
        0x0000c294:    e0800820     ...    ADD      r0,r0,r0,LSR #16
        0x0000c298:    e1a001a0    ....    MOV      r0,r0,LSR #3
        0x0000c29c:    e0802100    .!..    ADD      r2,r0,r0,LSL #2
        0x0000c2a0:    e0511082    ..Q.    SUBS     r1,r1,r2,LSL #1
        0x0000c2a4:    52800001    ...R    ADDPL    r0,r0,#1
        0x0000c2a8:    4281100a    ...B    ADDMI    r1,r1,#0xa
        0x0000c2ac:    e1a0f00e    ....    MOV      pc,r14
    strlen
    .text
        0x0000c2b0:    e280c001    ....    ADD      r12,r0,#1
        0x0000c2b4:    e3100003    ....    TST      r0,#3
        0x0000c2b8:    0a000005    ....    BEQ      0xc2d4
        0x0000c2bc:    e4d01001    ....    LDRB     r1,[r0],#1
        0x0000c2c0:    e3510000    ..Q.    CMP      r1,#0
        0x0000c2c4:    0040000c    ..@.    SUBEQ    r0,r0,r12
        0x0000c2c8:    01a0f00e    ....    MOVEQ    pc,r14
        0x0000c2cc:    e3100003    ....    TST      r0,#3
        0x0000c2d0:    1afffff9    ....    BNE      0xc2bc
        0x0000c2d4:    e59f2038    8 ..    LDR      r2,0xc314
        0x0000c2d8:    e4901004    ....    LDR      r1,[r0],#4
        0x0000c2dc:    e0413002    .0A.    SUB      r3,r1,r2
        0x0000c2e0:    e1c33001    .0..    BIC      r3,r3,r1
        0x0000c2e4:    e1130382    ....    TST      r3,r2,LSL #7
        0x0000c2e8:    0afffffa    ....    BEQ      0xc2d8
        0x0000c2ec:    e040000c    ..@.    SUB      r0,r0,r12
        0x0000c2f0:    e31100ff    ....    TST      r1,#0xff
        0x0000c2f4:    02400003    ..@.    SUBEQ    r0,r0,#3
        0x0000c2f8:    01a0f00e    ....    MOVEQ    pc,r14
        0x0000c2fc:    e3110cff    ....    TST      r1,#0xff00
        0x0000c300:    02400002    ..@.    SUBEQ    r0,r0,#2
        0x0000c304:    01a0f00e    ....    MOVEQ    pc,r14
        0x0000c308:    e31108ff    ....    TST      r1,#0xff0000
        0x0000c30c:    02400001    ..@.    SUBEQ    r0,r0,#1
        0x0000c310:    e1a0f00e    ....    MOV      pc,r14
    $d
        0x0000c314:    01010101    ....    DCD    16843009
    __32__I_use_semihosting_swi
    __I_use_semihosting_swi
    __semihosting_swi_guard
    $a
    .text
        0x0000c318:    e1a0f00e    ....    MOV      pc,r14
    __raise
    .text
        0x0000c31c:    e92d4070    p@-.    STMFD    r13!,{r4-r6,r14}
        0x0000c320:    e59f6050    P`..    LDR      r6,0xc378
        0x0000c324:    e1a05001    .P..    MOV      r5,r1
        0x0000c328:    e1a01000    ....    MOV      r1,r0
        0x0000c32c:    e1a04000    .@..    MOV      r4,r0
        0x0000c330:    e08f6006    .`..    ADD      r6,pc,r6
        0x0000c334:    e1a00006    ....    MOV      r0,r6
        0x0000c338:    ebffffff    ....    BL       0xc33c
        0x0000c33c:    e1500006    ..P.    CMP      r0,r6
        0x0000c340:    e1a02000    . ..    MOV      r2,r0
        0x0000c344:    01a00004    ....    MOVEQ    r0,r4
        0x0000c348:    01a01005    ....    MOVEQ    r1,r5
        0x0000c34c:    08bd4070    p@..    LDMEQFD  r13!,{r4-r6,r14}
        0x0000c350:    0a000012    ....    BEQ      __default_signal_handler  ; 0xc3a0
        0x0000c354:    e59f0020     ...    LDR      r0,0xc37c
        0x0000c358:    e08f0000    ....    ADD      r0,pc,r0
        0x0000c35c:    e1520000    ..R.    CMP      r2,r0
        0x0000c360:    11a01005    ....    MOVNE    r1,r5
        0x0000c364:    11a00004    ....    MOVNE    r0,r4
        0x0000c368:    11a0e00f    ....    MOVNE    r14,pc
    $p
        0x0000c36c:    11a0f002    ....    MOVNE    pc,r2
        0x0000c370:    e3a00000    ....    MOV      r0,#0
        0x0000c374:    e8bd8070    p...    LDMFD    r13!,{r4-r6,pc}
    $d
        0x0000c378:    ffff3cc7    .<..    DCD    4294917319
        0x0000c37c:    ffff3c9d    .<..    DCD    4294917277
    _no_fp_display
    $a
    .text
        0x0000c380:    e3a00000    ....    MOV      r0,#0
        0x0000c384:    e1a0f00e    ....    MOV      pc,r14
    _sys_exit
    .text
        0x0000c388:    e3a00018    ....    MOV      r0,#0x18
        0x0000c38c:    e59f1008    ....    LDR      r1,0xc39c
        0x0000c390:    ef123456    V4..    SWI      0x123456
        0x0000c394:    e1a0f00e    ....    MOV      pc,r14
    $d
    $f
        0x0000c398:    ffffff80    ....    DCD    4294967168
        0x0000c39c:    00020026    &...    DCD    131110
    __default_signal_handler
    $a
    .text
        0x0000c3a0:    e92d4038    8@-.    STMFD    r13!,{r3-r5,r14}
        0x0000c3a4:    e2402001    . @.    SUB      r2,r0,#1
        0x0000c3a8:    e352000d    ..R.    CMP      r2,#0xd
        0x0000c3ac:    228f50d4    .P."    ADDCS    r5,pc,#0xd4 ; #0xc488
        0x0000c3b0:    e28f40cc    .@..    ADD      r4,pc,#0xcc ; #0xc484
        0x0000c3b4:    2a00001c    ...*    BCS      0xc42c
        0x0000c3b8:    e59f30d8    .0..    LDR      r3,0xc498
        0x0000c3bc:    e0602180    .!`.    RSB      r2,r0,r0,LSL #3
        0x0000c3c0:    e0822200    ."..    ADD      r2,r2,r0,LSL #4
        0x0000c3c4:    e08f3003    .0..    ADD      r3,pc,r3
        0x0000c3c8:    e0822003    . ..    ADD      r2,r2,r3
        0x0000c3cc:    e2425017    .PB.    SUB      r5,r2,#0x17
        0x0000c3d0:    e3500002    ..P.    CMP      r0,#2
        0x0000c3d4:    1a00000e    ....    BNE      0xc414
        0x0000c3d8:    e3110640    @...    TST      r1,#0x4000000
        0x0000c3dc:    128f40b8    .@..    ADDNE    r4,pc,#0xb8 ; #0xc49c
        0x0000c3e0:    1a000011    ....    BNE      0xc42c
        0x0000c3e4:    e3110382    ....    TST      r1,#0x8000002
        0x0000c3e8:    128f40c0    .@..    ADDNE    r4,pc,#0xc0 ; #0xc4b0
        0x0000c3ec:    1a00000e    ....    BNE      0xc42c
        0x0000c3f0:    e3110540    @...    TST      r1,#0x10000000
        0x0000c3f4:    128f40c4    .@..    ADDNE    r4,pc,#0xc4 ; #0xc4c0
        0x0000c3f8:    1a00000b    ....    BNE      0xc42c
        0x0000c3fc:    e3110580    ....    TST      r1,#0x20000000
        0x0000c400:    128f40c4    .@..    ADDNE    r4,pc,#0xc4 ; #0xc4cc
        0x0000c404:    1a000008    ....    BNE      0xc42c
        0x0000c408:    e3110440    @...    TST      r1,#0x40000000
        0x0000c40c:    128f40c4    .@..    ADDNE    r4,pc,#0xc4 ; #0xc4d8
        0x0000c410:    ea000005    ....    B        0xc42c
        0x0000c414:    e3500008    ..P.    CMP      r0,#8
        0x0000c418:    01a04001    .@..    MOVEQ    r4,r1
        0x0000c41c:    0a000002    ....    BEQ      0xc42c
        0x0000c420:    e3500009    ..P.    CMP      r0,#9
        0x0000c424:    03510001    ..Q.    CMPEQ    r1,#1
        0x0000c428:    028f50b8    .P..    ADDEQ    r5,pc,#0xb8 ; #0xc4e8
        0x0000c42c:    e3a0000a    ....    MOV      r0,#0xa
        0x0000c430:    eb000032    2...    BL       _ttywrch  ; 0xc500
        0x0000c434:    e5d50000    ....    LDRB     r0,[r5,#0]
        0x0000c438:    e3500000    ..P.    CMP      r0,#0
        0x0000c43c:    0a000004    ....    BEQ      0xc454
        0x0000c440:    e4d50001    ....    LDRB     r0,[r5],#1
        0x0000c444:    eb00002d    -...    BL       _ttywrch  ; 0xc500
        0x0000c448:    e5d50000    ....    LDRB     r0,[r5,#0]
        0x0000c44c:    e3500000    ..P.    CMP      r0,#0
        0x0000c450:    1afffffa    ....    BNE      0xc440
        0x0000c454:    e5d40000    ....    LDRB     r0,[r4,#0]
        0x0000c458:    e3500000    ..P.    CMP      r0,#0
        0x0000c45c:    0a000004    ....    BEQ      0xc474
        0x0000c460:    e4d40001    ....    LDRB     r0,[r4],#1
        0x0000c464:    eb000025    %...    BL       _ttywrch  ; 0xc500
        0x0000c468:    e5d40000    ....    LDRB     r0,[r4,#0]
        0x0000c46c:    e3500000    ..P.    CMP      r0,#0
        0x0000c470:    1afffffa    ....    BNE      0xc460
        0x0000c474:    e3a0000a    ....    MOV      r0,#0xa
        0x0000c478:    eb000020     ...    BL       _ttywrch  ; 0xc500
        0x0000c47c:    e3a00001    ....    MOV      r0,#1
        0x0000c480:    e8bd8038    8...    LDMFD    r13!,{r3-r5,pc}
    $d
        0x0000c484:    00000000    ....    DCD    0
        0x0000c488:    6e6b6e55    Unkn    DCD    1852534357
        0x0000c48c:    206e776f    own     DCD    544110447
        0x0000c490:    6e676973    sign    DCD    1852270963
        0x0000c494:    00006c61    al..    DCD    27745
        0x0000c498:    000003e4    ....    DCD    996
        0x0000c49c:    61766e49    Inva    DCD    1635151433
        0x0000c4a0:    2064696c    lid     DCD    543451500
        0x0000c4a4:    7265704f    Oper    DCD    1919250511
        0x0000c4a8:    6f697461    atio    DCD    1869182049
        0x0000c4ac:    0000006e    n...    DCD    110
        0x0000c4b0:    69766944    Divi    DCD    1769367876
        0x0000c4b4:    42206564    de B    DCD    1109419364
        0x0000c4b8:    655a2079    y Ze    DCD    1700405369
        0x0000c4bc:    00006f72    ro..    DCD    28530
        0x0000c4c0:    7265764f    Over    DCD    1919252047
        0x0000c4c4:    776f6c66    flow    DCD    2003790950
        0x0000c4c8:    00000000    ....    DCD    0
        0x0000c4cc:    65646e55    Unde    DCD    1701080661
        0x0000c4d0:    6f6c6672    rflo    DCD    1869375090
        0x0000c4d4:    00000077    w...    DCD    119
        0x0000c4d8:    78656e49    Inex    DCD    2019913289
        0x0000c4dc:    20746361    act     DCD    544498529
        0x0000c4e0:    75736552    Resu    DCD    1970496850
        0x0000c4e4:    0000746c    lt..    DCD    29804
        0x0000c4e8:    6548203a    : He    DCD    1699225658
        0x0000c4ec:    6d207061    ap m    DCD    1830842465
        0x0000c4f0:    726f6d65    emor    DCD    1919905125
        0x0000c4f4:    6f632079    y co    DCD    1868767353
        0x0000c4f8:    70757272    rrup    DCD    1886745202
        0x0000c4fc:    00646574    ted.    DCD    6579572
    _ttywrch
    $a
    .text
        0x0000c500:    e92d4008    .@-.    STMFD    r13!,{r3,r14}
        0x0000c504:    e5cd0000    ....    STRB     r0,[r13,#0]
        0x0000c508:    e3a00003    ....    MOV      r0,#3
        0x0000c50c:    e1a0100d    ....    MOV      r1,r13
        0x0000c510:    ef123456    V4..    SWI      0x123456
        0x0000c514:    e8bd8008    ....    LDMFD    r13!,{r3,pc}
    OSStartHighRdy
    subr
        0x0000c518:    ebfffa96    ....    BL       OSTaskSwHook  ; 0xaf78
        0x0000c51c:    e59f4154    TA..    LDR      r4,0xc678
        0x0000c520:    e3a05001    .P..    MOV      r5,#1
        0x0000c524:    e5c45000    .P..    STRB     r5,[r4,#0]
        0x0000c528:    e59f414c    LA..    LDR      r4,0xc67c
        0x0000c52c:    e5944000    .@..    LDR      r4,[r4,#0]
        0x0000c530:    e594d000    ....    LDR      r13,[r4,#0]
        0x0000c534:    e8bd0010    ....    LDMFD    r13!,{r4}
        0x0000c538:    e16ff004    ..o.    MSR      SPSR_cxsf,r4
        0x0000c53c:    e8bd0010    ....    LDMFD    r13!,{r4}
        0x0000c540:    e12ff004    ../.    MSR      CPSR_cxsf,r4
        0x0000c544:    e8bddfff    ....    LDMFD    r13!,{r0-r12,r14,pc}
    OSCtxSw
        0x0000c548:    e92d4000    .@-.    STMFD    r13!,{r14}
        0x0000c54c:    e92d5fff    ._-.    STMFD    r13!,{r0-r12,r14}
        0x0000c550:    e10f4000    .@..    MRS      r4,CPSR
        0x0000c554:    e92d0010    ..-.    STMFD    r13!,{r4}
        0x0000c558:    e14f4000    .@O.    MRS      r4,SPSR
        0x0000c55c:    e92d0010    ..-.    STMFD    r13!,{r4}
    _OSCtxSw
        0x0000c560:    e59f4118    .A..    LDR      r4,0xc680
        0x0000c564:    e59f5118    .Q..    LDR      r5,0xc684
        0x0000c568:    e5d56000    .`..    LDRB     r6,[r5,#0]
        0x0000c56c:    e5c46000    .`..    STRB     r6,[r4,#0]
        0x0000c570:    e59f4110    .A..    LDR      r4,0xc688
        0x0000c574:    e5945000    .P..    LDR      r5,[r4,#0]
        0x0000c578:    e585d000    ....    STR      r13,[r5,#0]
        0x0000c57c:    ebfffa7d    }...    BL       OSTaskSwHook  ; 0xaf78
        0x0000c580:    e59f60f4    .`..    LDR      r6,0xc67c
        0x0000c584:    e5966000    .`..    LDR      r6,[r6,#0]
        0x0000c588:    e596d000    ....    LDR      r13,[r6,#0]
        0x0000c58c:    e5846000    .`..    STR      r6,[r4,#0]
        0x0000c590:    e8bd0010    ....    LDMFD    r13!,{r4}
        0x0000c594:    e16ff004    ..o.    MSR      SPSR_cxsf,r4
        0x0000c598:    e8bd0010    ....    LDMFD    r13!,{r4}
        0x0000c59c:    e12ff004    ../.    MSR      CPSR_cxsf,r4
        0x0000c5a0:    e8bddfff    ....    LDMFD    r13!,{r0-r12,r14,pc}
    OSIntCtxSw
        0x0000c5a4:    e59f00e0    ....    LDR      r0,0xc68c
        0x0000c5a8:    e3a01001    ....    MOV      r1,#1
        0x0000c5ac:    e5801000    ....    STR      r1,[r0,#0]
        0x0000c5b0:    e1a0f00e    ....    MOV      pc,r14
    SAVED_LR_SVC
    $d
        0x0000c5b4:    00000000    ....    DCD    0
    SAVED_LR_IRQ
        0x0000c5b8:    00000000    ....    DCD    0
    SAVED_SPSR
        0x0000c5bc:    00000000    ....    DCD    0
    INTPND
        0x0000c5c0:    03ff4004    .@..    DCD    67059716
    OSTickISR
    $a
        0x0000c5c4:    e24ee004    ..N.    SUB      r14,r14,#4
        0x0000c5c8:    e92d5fff    ._-.    STMFD    r13!,{r0-r12,r14}
        0x0000c5cc:    e14f4000    .@O.    MRS      r4,SPSR
        0x0000c5d0:    e92d0010    ..-.    STMFD    r13!,{r4}
        0x0000c5d4:    e51f001c    ....    LDR      r0,0xc5c0
        0x0000c5d8:    e5900000    ....    LDR      r0,[r0,#0]
        0x0000c5dc:    e3100e40    @...    TST      r0,#0x400
        0x0000c5e0:    1a000002    ....    BNE      handler_event_timer  ; 0xc5f0
        0x0000c5e4:    e8bd0010    ....    LDMFD    r13!,{r4}
        0x0000c5e8:    e16ff004    ..o.    MSR      SPSR_cxsf,r4
        0x0000c5ec:    e8fd9fff    ....    LDMFD    r13!,{r0-r12,pc}^
    handler_event_timer
        0x0000c5f0:    ebfff112    ....    BL       OSIntEnter  ; 0x8a40
        0x0000c5f4:    ebfff1c2    ....    BL       OSTimeTick  ; 0x8d04
        0x0000c5f8:    ebffee9d    ....    BL       timer_irq  ; 0x8074
        0x0000c5fc:    ebfff11c    ....    BL       OSIntExit  ; 0x8a74
        0x0000c600:    e59f0084    ....    LDR      r0,0xc68c
        0x0000c604:    e5901000    ....    LDR      r1,[r0,#0]
        0x0000c608:    e3510001    ..Q.    CMP      r1,#1
        0x0000c60c:    0affffff    ....    BEQ      _IntCtxSw  ; 0xc610
    _IntCtxSw
        0x0000c610:    e3a01000    ....    MOV      r1,#0
        0x0000c614:    e5801000    ....    STR      r1,[r0,#0]
        0x0000c618:    e8bd0010    ....    LDMFD    r13!,{r4}
        0x0000c61c:    e16ff004    ..o.    MSR      SPSR_cxsf,r4
        0x0000c620:    e50f406c    l@..    STR      r4,0xc5bc
        0x0000c624:    e8bd5fff    ._..    LDMFD    r13!,{r0-r12,r14}
        0x0000c628:    e50fe078    x...    STR      r14,0xc5b8
        0x0000c62c:    e3a0e0d3    ....    MOV      r14,#0xd3
        0x0000c630:    e12ff00e    ../.    MSR      CPSR_cxsf,r14
        0x0000c634:    e50fe088    ....    STR      r14,0xc5b4
        0x0000c638:    e51fe088    ....    LDR      r14,0xc5b8
        0x0000c63c:    e92d4000    .@-.    STMFD    r13!,{r14}
        0x0000c640:    e51fe094    ....    LDR      r14,0xc5b4
        0x0000c644:    e92d5fff    ._-.    STMFD    r13!,{r0-r12,r14}
        0x0000c648:    e51f4094    .@..    LDR      r4,0xc5bc
        0x0000c64c:    e92d0010    ..-.    STMFD    r13!,{r4}
        0x0000c650:    e92d0010    ..-.    STMFD    r13!,{r4}
        0x0000c654:    eaffffc1    ....    B        _OSCtxSw  ; 0xc560
    ARMDisableInt
        0x0000c658:    e10f0000    ....    MRS      r0,CPSR
        0x0000c65c:    e92d0001    ..-.    STMFD    r13!,{r0}
        0x0000c660:    e38000c0    ....    ORR      r0,r0,#0xc0
        0x0000c664:    e121f000    ..!.    MSR      CPSR_c,r0
        0x0000c668:    e1a0f00e    ....    MOV      pc,r14
    ARMEnableInt
        0x0000c66c:    e8bd0001    ....    LDMFD    r13!,{r0}
        0x0000c670:    e121f000    ..!.    MSR      CPSR_c,r0
        0x0000c674:    e1a0f00e    ....    MOV      pc,r14
    $d
        0x0000c678:    0000f9ac    ....    DCD    63916
        0x0000c67c:    000101bc    ....    DCD    65980
        0x0000c680:    0000f9a7    ....    DCD    63911
        0x0000c684:    0000f9a8    ....    DCD    63912
        0x0000c688:    000101b4    ....    DCD    65972
        0x0000c68c:    00010554    T...    DCD    66900
    _fp_init
    $a
    x$fpl$fpinit
        0x0000c690:    e92d4010    .@-.    STMFD    r13!,{r4,r14}
        0x0000c694:    ebfffef0    ....    BL       __rt_fp_status_addr  ; 0xc25c
        0x0000c698:    e3a01000    ....    MOV      r1,#0
        0x0000c69c:    e5801000    ....    STR      r1,[r0,#0]
    __fplib_config_pureend_doubles
        0x0000c6a0:    e8bd8010    ....    LDMFD    r13!,{r4,pc}
    _fp_display_gate
    x$fpl$printf2
        0x0000c6a4:    eaffff35    5...    B        _no_fp_display  ; 0xc380
    OSMapTbl
    .constdata$1
    $d
    .constdata
        0x0000c6a8:    08040201    ....    DCD    134480385
        0x0000c6ac:    80402010    . @.    DCD    2151686160
    OSUnMapTbl
        0x0000c6b0:    00010000    ....    DCD    65536
        0x0000c6b4:    00010002    ....    DCD    65538
        0x0000c6b8:    00010003    ....    DCD    65539
        0x0000c6bc:    00010002    ....    DCD    65538
        0x0000c6c0:    00010004    ....    DCD    65540
        0x0000c6c4:    00010002    ....    DCD    65538
        0x0000c6c8:    00010003    ....    DCD    65539
        0x0000c6cc:    00010002    ....    DCD    65538
        0x0000c6d0:    00010005    ....    DCD    65541
        0x0000c6d4:    00010002    ....    DCD    65538
        0x0000c6d8:    00010003    ....    DCD    65539
        0x0000c6dc:    00010002    ....    DCD    65538
        0x0000c6e0:    00010004    ....    DCD    65540
        0x0000c6e4:    00010002    ....    DCD    65538
        0x0000c6e8:    00010003    ....    DCD    65539
        0x0000c6ec:    00010002    ....    DCD    65538
        0x0000c6f0:    00010006    ....    DCD    65542
        0x0000c6f4:    00010002    ....    DCD    65538
        0x0000c6f8:    00010003    ....    DCD    65539
        0x0000c6fc:    00010002    ....    DCD    65538
        0x0000c700:    00010004    ....    DCD    65540
        0x0000c704:    00010002    ....    DCD    65538
        0x0000c708:    00010003    ....    DCD    65539
        0x0000c70c:    00010002    ....    DCD    65538
        0x0000c710:    00010005    ....    DCD    65541
        0x0000c714:    00010002    ....    DCD    65538
        0x0000c718:    00010003    ....    DCD    65539
        0x0000c71c:    00010002    ....    DCD    65538
        0x0000c720:    00010004    ....    DCD    65540
        0x0000c724:    00010002    ....    DCD    65538
        0x0000c728:    00010003    ....    DCD    65539
        0x0000c72c:    00010002    ....    DCD    65538
        0x0000c730:    00010007    ....    DCD    65543
        0x0000c734:    00010002    ....    DCD    65538
        0x0000c738:    00010003    ....    DCD    65539
        0x0000c73c:    00010002    ....    DCD    65538
        0x0000c740:    00010004    ....    DCD    65540
        0x0000c744:    00010002    ....    DCD    65538
        0x0000c748:    00010003    ....    DCD    65539
        0x0000c74c:    00010002    ....    DCD    65538
        0x0000c750:    00010005    ....    DCD    65541
        0x0000c754:    00010002    ....    DCD    65538
        0x0000c758:    00010003    ....    DCD    65539
        0x0000c75c:    00010002    ....    DCD    65538
        0x0000c760:    00010004    ....    DCD    65540
        0x0000c764:    00010002    ....    DCD    65538
        0x0000c768:    00010003    ....    DCD    65539
        0x0000c76c:    00010002    ....    DCD    65538
        0x0000c770:    00010006    ....    DCD    65542
        0x0000c774:    00010002    ....    DCD    65538
        0x0000c778:    00010003    ....    DCD    65539
        0x0000c77c:    00010002    ....    DCD    65538
        0x0000c780:    00010004    ....    DCD    65540
        0x0000c784:    00010002    ....    DCD    65538
        0x0000c788:    00010003    ....    DCD    65539
        0x0000c78c:    00010002    ....    DCD    65538
        0x0000c790:    00010005    ....    DCD    65541
        0x0000c794:    00010002    ....    DCD    65538
        0x0000c798:    00010003    ....    DCD    65539
        0x0000c79c:    00010002    ....    DCD    65538
        0x0000c7a0:    00010004    ....    DCD    65540
        0x0000c7a4:    00010002    ....    DCD    65538
        0x0000c7a8:    00010003    ....    DCD    65539
        0x0000c7ac:    00010002    ....    DCD    65538
    .constdata$1
    messages@__default_signal_handler_0
    .constdata
        0x0000c7b0:    6f6e6241    Abno    DCD    1869505089
        0x0000c7b4:    6c616d72    rmal    DCD    1818324338
        0x0000c7b8:    72657420     ter    DCD    1919251488
        0x0000c7bc:    616e696d    mina    DCD    1634625901
        0x0000c7c0:    6e6f6974    tion    DCD    1852795252
        0x0000c7c4:    41000000    ...A    DCD    1090519040
        0x0000c7c8:    68746972    rith    DCD    1752459634
        0x0000c7cc:    6974656d    meti    DCD    1769235821
        0x0000c7d0:    78652063    c ex    DCD    2019893347
        0x0000c7d4:    74706563    cept    DCD    1953523043
        0x0000c7d8:    3a6e6f69    ion:    DCD    980316009
        0x0000c7dc:    6c490020     .Il    DCD    1816723488
        0x0000c7e0:    6167656c    lega    DCD    1634166124
        0x0000c7e4:    6e69206c    l in    DCD    1852383340
        0x0000c7e8:    75727473    stru    DCD    1970435187
        0x0000c7ec:    6f697463    ctio    DCD    1869182051
        0x0000c7f0:    0000006e    n...    DCD    110
        0x0000c7f4:    746e4900    .Int    DCD    1953384704
        0x0000c7f8:    75727265    erru    DCD    1970434661
        0x0000c7fc:    72207470    pt r    DCD    1914729584
        0x0000c800:    69656365    ecei    DCD    1768252261
        0x0000c804:    00646576    ved.    DCD    6579574
        0x0000c808:    00000000    ....    DCD    0
        0x0000c80c:    656c6c49    Ille    DCD    1701604425
        0x0000c810:    206c6167    gal     DCD    543973735
        0x0000c814:    72646461    addr    DCD    1919181921
        0x0000c818:    00737365    ess.    DCD    7566181
        0x0000c81c:    00000000    ....    DCD    0
        0x0000c820:    54000000    ...T    DCD    1409286144
        0x0000c824:    696d7265    ermi    DCD    1768780389
        0x0000c828:    6974616e    nati    DCD    1769234798
        0x0000c82c:    72206e6f    on r    DCD    1914728047
        0x0000c830:    65757165    eque    DCD    1702195557
        0x0000c834:    00007473    st..    DCD    29811
        0x0000c838:    74530000    ..St    DCD    1951596544
        0x0000c83c:    206b6361    ack     DCD    543908705
        0x0000c840:    7265766f    over    DCD    1919252079
        0x0000c844:    776f6c66    flow    DCD    2003790950
        0x0000c848:    00000000    ....    DCD    0
        0x0000c84c:    00000000    ....    DCD    0
        0x0000c850:    64655200    .Red    DCD    1684361728
        0x0000c854:    63657269    irec    DCD    1667592809
        0x0000c858:    63203a74    t: c    DCD    1663056500
        0x0000c85c:    74276e61    an't    DCD    1948741217
        0x0000c860:    65706f20     ope    DCD    1701867296
        0x0000c864:    00203a6e    n: .    DCD    2112110
        0x0000c868:    2074754f    Out     DCD    544503119
        0x0000c86c:    6820666f    of h    DCD    1746953839
        0x0000c870:    20706165    eap     DCD    544235877
        0x0000c874:    6f6d656d    memo    DCD    1869440365
        0x0000c878:    00007972    ry..    DCD    31090
        0x0000c87c:    55000000    ...U    DCD    1426063360
        0x0000c880:    2d726573    ser-    DCD    762471795
        0x0000c884:    69666564    defi    DCD    1768318308
        0x0000c888:    2064656e    ned     DCD    543450478
        0x0000c88c:    6e676973    sign    DCD    1852270963
        0x0000c890:    31206c61    al 1    DCD    824208481
        0x0000c894:    73550000    ..Us    DCD    1934950400
        0x0000c898:    642d7265    er-d    DCD    1680700005
        0x0000c89c:    6e696665    efin    DCD    1852401253
        0x0000c8a0:    73206465    ed s    DCD    1931502693
        0x0000c8a4:    616e6769    igna    DCD    1634625385
        0x0000c8a8:    0032206c    l 2.    DCD    3285100
        0x0000c8ac:    72755000    .Pur    DCD    1920290816
        0x0000c8b0:    69762065    e vi    DCD    1769349221
        0x0000c8b4:    61757472    rtua    DCD    1635087474
        0x0000c8b8:    6e66206c    l fn    DCD    1852186732
        0x0000c8bc:    6c616320     cal    DCD    1818321696
        0x0000c8c0:    0064656c    led.    DCD    6579564
        0x0000c8c4:    202b2b43    C++     DCD    539700035
        0x0000c8c8:    7262696c    libr    DCD    1919052140
        0x0000c8cc:    20797261    ary     DCD    544830049
        0x0000c8d0:    65637865    exce    DCD    1701017701
        0x0000c8d4:    6f697470    ptio    DCD    1869182064
        0x0000c8d8:    0000006e    n...    DCD    110

** Section #2 'ER_ZI' (SHT_NOBITS) [SHF_ALLOC + SHF_WRITE]
    Size   : 15580 bytes (alignment 4)
    Address: 0x0000c8dc


** Section #3 '.debug_abbrev' (SHT_PROGBITS)
    Size   : 1036 bytes


** Section #4 '.debug_frame' (SHT_PROGBITS)
    Size   : 4560 bytes


** Section #5 '.debug_info' (SHT_PROGBITS)
    Size   : 20296 bytes


** Section #6 '.debug_line' (SHT_PROGBITS)
    Size   : 4036 bytes


** Section #7 '.debug_loc' (SHT_PROGBITS)
    Size   : 9276 bytes


** Section #8 '.debug_macinfo' (SHT_PROGBITS)
    Size   : 8544 bytes


** Section #9 '.debug_pubnames' (SHT_PROGBITS)
    Size   : 3336 bytes


** Section #10 '.symtab' (SHT_SYMTAB)
    Size   : 5152 bytes (alignment 4)
    String table '.strtab'
    Last local symbol no. 164

    Symbol table .symtab (321 symbols, 164 local)

      #  Symbol Name                Value      Bind  Sec  Type  Size
    ========================================================================

      1  $m                         0x0000004c   Lc  Abs   -- 
      2  $a                         0x00008000   Lc    1  Code
      3  $d                         0x00008028   Lc    1  Data
      4  $f                         0x00008028   Lc    1  Data
      5  $a                         0x0000802c   Lc    1  Code
      6  $d                         0x000080d0   Lc    1  Data
      7  $a                         0x000080fc   Lc    1  Code
      8  $d                         0x00008214   Lc    1  Data
      9  $a                         0x000082b8   Lc    1  Code
     10  $d                         0x00008328   Lc    1  Data
     11  $a                         0x000083b8   Lc    1  Code
     12  $d                         0x0000841c   Lc    1  Data
     13  $f                         0x00008430   Lc    1  Data
     14  $f                         0x00008438   Lc    1  Data
     15  $f                         0x00008440   Lc    1  Data
     16  $a                         0x00008444   Lc    1  Code
     17  $d                         0x00008c80   Lc    1  Data
     18  $f                         0x00008cfc   Lc    1  Data
     19  $a                         0x00008d04   Lc    1  Code
     20  $d                         0x0000a86c   Lc    1  Data
     21  $a                         0x0000a89c   Lc    1  Code
     22  $d                         0x0000ae4c   Lc    1  Data
     23  $a                         0x0000ae50   Lc    1  Code
     24  $d                         0x0000af8c   Lc    1  Data
     25  $a                         0x0000afa0   Lc    1  Code
     26  $d                         0x0000b020   Lc    1  Data
     27  $a                         0x0000b038   Lc    1  Code
     28  $d                         0x0000b048   Lc    1  Data
     29  $a                         0x0000b058   Lc    1  Code
     30  $d                         0x0000b0a8   Lc    1  Data
     31  $f                         0x0000b0a8   Lc    1  Data
     32  $f                         0x0000b0ac   Lc    1  Data
     33  $a                         0x0000b0b4   Lc    1  Code
     34  $d                         0x0000b1ac   Lc    1  Data
     35  $a                         0x0000b1b0   Lc    1  Code
     36  $p                         0x0000b470   Lc    1  Code
     37  $p                         0x0000b6f4   Lc    1  Code
     38  $p                         0x0000b710   Lc    1  Code
     39  $p                         0x0000b73c   Lc    1  Code
     40  $p                         0x0000b864   Lc    1  Code
     41  $p                         0x0000b89c   Lc    1  Code
     42  $p                         0x0000b8d8   Lc    1  Code
     43  $p                         0x0000bbd0   Lc    1  Code
     44  $d                         0x0000bbec   Lc    1  Data
     45  $a                         0x0000bc38   Lc    1  Code
     46  $p                         0x0000bf60   Lc    1  Code
     47  $p                         0x0000bf8c   Lc    1  Code
     48  $p                         0x0000bfe0   Lc    1  Code
     49  $p                         0x0000c058   Lc    1  Code
     50  $p                         0x0000c088   Lc    1  Code
     51  $p                         0x0000c0b0   Lc    1  Code
     52  $p                         0x0000c0e4   Lc    1  Code
     53  $p                         0x0000c114   Lc    1  Code
     54  $p                         0x0000c14c   Lc    1  Code
     55  $a                         0x0000c168   Lc    1  Code
     56  $d                         0x0000c170   Lc    1  Data
     57  $a                         0x0000c174   Lc    1  Code
     58  $d                         0x0000c1bc   Lc    1  Data
     59  $f                         0x0000c1bc   Lc    1  Data
     60  $a                         0x0000c1c4   Lc    1  Code
     61  $d                         0x0000c314   Lc    1  Data
     62  $a                         0x0000c318   Lc    1  Code
     63  $p                         0x0000c36c   Lc    1  Code
     64  $d                         0x0000c378   Lc    1  Data
     65  $a                         0x0000c380   Lc    1  Code
     66  $d                         0x0000c398   Lc    1  Data
     67  $f                         0x0000c398   Lc    1  Data
     68  $a                         0x0000c3a0   Lc    1  Code
     69  $d                         0x0000c484   Lc    1  Data
     70  $a                         0x0000c500   Lc    1  Code
     71  $d                         0x0000c5b4   Lc    1  Data
     72  $a                         0x0000c5c4   Lc    1  Code
     73  $d                         0x0000c678   Lc    1  Data
     74  $a                         0x0000c690   Lc    1  Code
     75  $d                         0x0000c6a8   Lc    1  Data
     76  $d                         0x0000c8dc   Lc    2  Data
     77  ..\startup.s               0x00000000   Lc  Abs  File
     78  asm_code                   0x00008000   Lc    1  Sect  0x2c
     79  Mode_Svc                   0x00000013   Lc  Abs   -- 
     80  F_Bit                      0x00000040   Lc  Abs   -- 
     81  __init                     0x00008000   Lc    1  Code
     82  ..\main_entry.c            0x00000000   Lc  Abs  File
     83  .text                      0x0000802c   Lc    1  Sect
     84  .bss                       0x0000c8dc   Lc    2  Sect
     85  .bss$2                     0x0000c8dc   Lc    2  Data
     86  counter                    0x0000c8dc   Lc    2  Data  0x4
     87  ..\irq_ven.s               0x00000000   Lc  Abs  File
     88  ..\ucos_ii.c               0x00000000   Lc  Abs  File
     89  .bss                       0x0000f8e4   Lc    2  Sect
     90  .text                      0x00008444   Lc    1  Sect
     91  .constdata                 0x0000c6a8   Lc    1  Sect
     92  .constdata$1               0x0000c6a8   Lc    1  Data
     93  .bss$2                     0x0000f8e4   Lc    2  Data
     94  ..\os_cpu_c.c              0x00000000   Lc  Abs  File
     95  .bss                       0x00010550   Lc    2  Sect
     96  .text                      0x0000ae50   Lc    1  Sect
     97  .bss$2                     0x00010550   Lc    2  Data
     98  counter@OSTaskIdleHook_0   0x00010550   Lc    2  Data  0x4
     99  ..\os_cpu_a.s              0x00000000   Lc  Abs  File
    100  subr                       0x0000c518   Lc    1  Sect  0x178
    101  _OSCtxSw                   0x0000c560   Lc    1  Code
    102  SAVED_LR_SVC               0x0000c5b4   Lc    1  Data  0x4
    103  SAVED_LR_IRQ               0x0000c5b8   Lc    1  Data  0x4
    104  SAVED_SPSR                 0x0000c5bc   Lc    1  Data  0x4
    105  INTPND                     0x0000c5c0   Lc    1  Data  0x4
    106  handler_event_timer        0x0000c5f0   Lc    1  Code
    107  _IntCtxSw                  0x0000c610   Lc    1  Code
    108  ../../printf.c             0x00000000   Lc  Abs  File
    109  .text                      0x0000b060   Lc    1  Sect
    110  ../../armsys.c             0x00000000   Lc  Abs  File
    111  .text                      0x0000b0b4   Lc    1  Sect
    112  ../../memcpset.s           0x00000000   Lc  Abs  File
    113  .text                      0x0000b1b0   Lc    1  Sect  0x58
    114  _loop                      0x0000b1c8   Lc    1  Code
    115  ../../memcpset.s           0x00000000   Lc  Abs  File
    116  .text                      0x0000b208   Lc    1  Sect  0x6c
    117  _memcpy_aligned_loop       0x0000b214   Lc    1  Code
    118  _memcpy_small              0x0000b22c   Lc    1  Code
    119  ../../division.s           0x00000000   Lc  Abs  File
    120  .text                      0x0000b274   Lc    1  Sect  0xc0
    121  ../../stkheap1.s           0x00000000   Lc  Abs  File
    122  .text                      0x0000b334   Lc    1  Sect  0xfc
    123  _heap_overflow             0x0000b420   Lc    1  Code
    124  ../../printf.c             0x00000000   Lc  Abs  File
    125  .text                      0x0000b430   Lc    1  Sect
    126  _printf_display            0x0000bc38   Lc    1  Code  0x530
    127  ../../angel/sys.s          0x00000000   Lc  Abs  File
    128  .text                      0x0000c168   Lc    1  Sect  0xc
    129  .bss                       0x00010558   Lc    2  Sect  0x60
    130  __libspace_start           0x00010558   Lc    2  Data  0x60
    131  ../../angel/rt.s           0x00000000   Lc  Abs  File
    132  .text                      0x0000c174   Lc    1  Sect  0xc
    133  ../../angel/sys.s          0x00000000   Lc  Abs  File
    134  .text                      0x0000c180   Lc    1  Sect  0x44
    135  ../../fpinit.s             0x00000000   Lc  Abs  File
    136  x$fpl$fpinit               0x0000c690   Lc    1  Sect  0x14
    137  ../../longlong.s           0x00000000   Lc  Abs  File
    138  .text                      0x0000c1c4   Lc    1  Sect  0x98
    139  ../../angel/rt.s           0x00000000   Lc  Abs  File
    140  .text                      0x0000c25c   Lc    1  Sect  0x10
    141  ../../angel/rt.s           0x00000000   Lc  Abs  File
    142  .text                      0x0000c26c   Lc    1  Sect  0x18
    143  ../../division.s           0x00000000   Lc  Abs  File
    144  .text                      0x0000c284   Lc    1  Sect  0x2c
    145  ../../string.c             0x00000000   Lc  Abs  File
    146  .text                      0x0000c2b0   Lc    1  Sect
    147  ../../angel/sys.s          0x00000000   Lc  Abs  File
    148  .text                      0x0000c318   Lc    1  Sect  0x4
    149  ../../printf2.s            0x00000000   Lc  Abs  File
    150  x$fpl$printf2              0x0000c6a4   Lc    1  Sect  0x4
    151  ../../signal.c             0x00000000   Lc  Abs  File
    152  .text                      0x0000c31c   Lc    1  Sect
    153  ../../printf.c             0x00000000   Lc  Abs  File
    154  .text                      0x0000c380   Lc    1  Sect
    155  ../../angel/sys.s          0x00000000   Lc  Abs  File
    156  .text                      0x0000c388   Lc    1  Sect  0x18
    157  ../../signal.c             0x00000000   Lc  Abs  File
    158  .text                      0x0000c3a0   Lc    1  Sect
    159  .constdata                 0x0000c7b0   Lc    1  Sect
    160  .constdata$1               0x0000c7b0   Lc    1  Data
    161  messages@__default_signal_handler_0
                                    0x0000c7b0   Lc    1  Data  0x17
    162  ../../unhosted.s           0x00000000   Lc  Abs  File
    163  ../../angel/sysapp.c       0x00000000   Lc  Abs  File
    164  .text                      0x0000c500   Lc    1  Sect
    165  BuildAttributes$$ARM_ISAv4$M$PE$A:L22$X:L11$S22$~IW$USESV6$~STKCKD$USESV7$~SHL$OSPACE
                                    0x00000000   Gb  Abs   -- 
    166  putchar_uart0              0x0000802c   Gb    1  Code  0x20
    167  fputc                      0x0000804c   Gb    1  Code  0x1c
    168  ferror                     0x00008068   Gb    1  Code  0xc
    169  timer_irq                  0x00008074   Gb    1  Code  0x88
    170  install_irqhandler         0x000080fc   Gb    1  Code  0x28
    171  timer_init                 0x00008124   Gb    1  Code  0x1c
    172  timer_start                0x00008140   Gb    1  Code  0x38
    173  Sleep                      0x00008178   Gb    1  Code  0x14
    174  Task1                      0x0000818c   Gb    1  Code  0x12c
    175  Task2                      0x000082b8   Gb    1  Code  0x100
    176  C_Entry                    0x000083b8   Gb    1  Code  0x8c
    177  OS_TaskIdle                0x00008444   Gb    1  Code  0x38
    178  OS_Sched                   0x0000847c   Gb    1  Code  0x9c
    179  OS_TCBInit                 0x00008518   Gb    1  Code  0x15c
    180  OSTaskCreateExt            0x00008674   Gb    1  Code  0x104
    181  OS_MemInit                 0x00008778   Gb    1  Code  0x94
    182  OS_QInit                   0x0000880c   Gb    1  Code  0x4c
    183  OSInit                     0x00008858   Gb    1  Code  0x1e8
    184  OSIntEnter                 0x00008a40   Gb    1  Code  0x34
    185  OSIntExit                  0x00008a74   Gb    1  Code  0xd8
    186  OSSchedLock                0x00008b4c   Gb    1  Code  0x44
    187  OSSchedUnlock              0x00008b90   Gb    1  Code  0x70
    188  OSStart                    0x00008c00   Gb    1  Code  0x104
    189  OSTimeTick                 0x00008d04   Gb    1  Code  0xc0
    190  OSVersion                  0x00008dc4   Gb    1  Code  0x8
    191  OS_Dummy                   0x00008dcc   Gb    1  Code  0x4
    192  OS_EventTaskRdy            0x00008dd0   Gb    1  Code  0xc0
    193  OS_EventTaskWait           0x00008e90   Gb    1  Code  0xa8
    194  OS_EventTO                 0x00008f38   Gb    1  Code  0x70
    195  OS_EventWaitListInit       0x00008fa8   Gb    1  Code  0x20
    196  OSMboxAccept               0x00008fc8   Gb    1  Code  0x48
    197  OSMboxCreate               0x00009010   Gb    1  Code  0x78
    198  OSMboxDel                  0x00009088   Gb    1  Code  0x154
    199  OSMboxPend                 0x000091dc   Gb    1  Code  0x140
    200  OSMboxPost                 0x0000931c   Gb    1  Code  0x98
    201  OSMboxPostOpt              0x000093b4   Gb    1  Code  0xc8
    202  OSMboxQuery                0x0000947c   Gb    1  Code  0x68
    203  OSMemCreate                0x000094e4   Gb    1  Code  0x110
    204  OSMemGet                   0x000095f4   Gb    1  Code  0x74
    205  OSMemPut                   0x00009668   Gb    1  Code  0x70
    206  OSMemQuery                 0x000096d8   Gb    1  Code  0x74
    207  OSQAccept                  0x0000974c   Gb    1  Code  0x8c
    208  OSQCreate                  0x000097d8   Gb    1  Code  0xfc
    209  OSQDel                     0x000098d4   Gb    1  Code  0x184
    210  OSQFlush                   0x00009a58   Gb    1  Code  0x58
    211  OSQPend                    0x00009ab0   Gb    1  Code  0x174
    212  OSQPost                    0x00009c24   Gb    1  Code  0xd4
    213  OSQPostFront               0x00009cf8   Gb    1  Code  0xd4
    214  OSQPostOpt                 0x00009dcc   Gb    1  Code  0x13c
    215  OSQQuery                   0x00009f08   Gb    1  Code  0x94
    216  OSSemAccept                0x00009f9c   Gb    1  Code  0x54
    217  OSSemCreate                0x00009ff0   Gb    1  Code  0x78
    218  OSSemDel                   0x0000a068   Gb    1  Code  0x154
    219  OSSemPend                  0x0000a1bc   Gb    1  Code  0x10c
    220  OSSemPost                  0x0000a2c8   Gb    1  Code  0x90
    221  OSSemQuery                 0x0000a358   Gb    1  Code  0x68
    222  OSTaskChangePrio           0x0000a3c0   Gb    1  Code  0x1cc
    223  OSTaskCreate               0x0000a58c   Gb    1  Code  0xe4
    224  OSTaskDel                  0x0000a670   Gb    1  Code  0x22c
    225  OSTaskDelReq               0x0000a89c   Gb    1  Code  0x88
    226  OSTaskResume               0x0000a924   Gb    1  Code  0xb8
    227  OSTaskStkChk               0x0000a9dc   Gb    1  Code  0xc4
    228  OSTaskSuspend              0x0000aaa0   Gb    1  Code  0xec
    229  OSTaskQuery                0x0000ab8c   Gb    1  Code  0x74
    230  OSTimeDly                  0x0000ac00   Gb    1  Code  0x80
    231  OSTimeDlyHMSM              0x0000ac80   Gb    1  Code  0xe0
    232  OSTimeDlyResume            0x0000ad60   Gb    1  Code  0xb0
    233  OSTimeGet                  0x0000ae10   Gb    1  Code  0x20
    234  OSTimeSet                  0x0000ae30   Gb    1  Code  0x1c
    235  OSTaskStkInit              0x0000ae50   Gb    1  Code  0x118
    236  OSTaskCreateHook           0x0000af68   Gb    1  Code  0x8
    237  OSTaskDelHook              0x0000af70   Gb    1  Code  0x8
    238  OSTaskSwHook               0x0000af78   Gb    1  Code  0x4
    239  OSTaskStatHook             0x0000af7c   Gb    1  Code  0x24
    240  OSTimeTickHook             0x0000afa0   Gb    1  Code  0x4
    241  InitHookEnd                0x0000afa4   Gb    1  Code  0x4
    242  OSTCBInitHook              0x0000afa8   Gb    1  Code  0x4
    243  OSTaskIdleHook             0x0000afac   Gb    1  Code  0x64
    244  OSInitHookBegin            0x0000b010   Gb    1  Code  0x28
    245  OSInitHookEnd              0x0000b038   Gb    1  Code  0x20
    246  OS_FlagInit                0x0000b058   Gb    1  Code  0x4
    247  OS_FlagUnlink              0x0000b05c   Gb    1  Code  0x4
    248  _printf                    0x0000b060   Gb    1  Code  0x48
    249  __rt_lib_init              0x0000b0b4   Gb    1  Code  0xe4
    250  __rt_lib_shutdown          0x0000b198   Gb    1  Code  0x14
    251  __rt_memclr_w              0x0000b1b0   Gb    1  Code  0x58
    252  _memset_w                  0x0000b1b4   Gb    1  Code
    253  __rt_memcpy_w              0x0000b208   Gb    1  Code  0x6c
    254  _memcpy_lastbytes          0x0000b254   Gb    1  Code
    255  __rt_udiv                  0x0000b274   Gb    1  Code  0xc0
    256  __rt_stackheap_init        0x0000b334   Gb    1  Code  0x90
    257  __rt_heap_extend           0x0000b3c4   Gb    1  Code  0x6c
    258  __vfprintf                 0x0000b430   Gb    1  Code  0x808
    259  __user_libspace            0x0000c168   Gb    1  Code  0x8
    260  __rt_div0                  0x0000c174   Gb    1  Code  0xc
    261  __user_initial_stackheap   0x0000c180   Gb    1  Code  0x44
    262  _RW_Limit                  0x0000c1c0   Gb    1  Data
    263  _ll_udiv10                 0x0000c1c4   Gb    1  Code  0x98
    264  __rt_fp_status_addr        0x0000c25c   Gb    1  Code  0x10
    265  __32__rt_raise             0x0000c26c   Gb    1  Code
    266  __rt_raise                 0x0000c26c   Gb    1  Code  0x18
    267  __rt_udiv10                0x0000c284   Gb    1  Code  0x2c
    268  strlen                     0x0000c2b0   Gb    1  Code  0x64
    269  __32__I_use_semihosting_swi
                                    0x0000c318   Gb    1  Code
    270  __I_use_semihosting_swi    0x0000c318   Gb    1  Code  0x4
    271  __semihosting_swi_guard    0x0000c318   Gb    1  Code
    272  __raise                    0x0000c31c   Gb    1  Code  0x5c
    273  _no_fp_display             0x0000c380   Gb    1  Code  0x8
    274  _sys_exit                  0x0000c388   Gb    1  Code  0x14
    275  __default_signal_handler   0x0000c3a0   Gb    1  Code  0x160
    276  _ttywrch                   0x0000c500   Gb    1  Code  0x18
    277  OSStartHighRdy             0x0000c518   Gb    1  Code
    278  OSCtxSw                    0x0000c548   Gb    1  Code
    279  OSIntCtxSw                 0x0000c5a4   Gb    1  Code
    280  OSTickISR                  0x0000c5c4   Gb    1  Code
    281  ARMDisableInt              0x0000c658   Gb    1  Code
    282  ARMEnableInt               0x0000c66c   Gb    1  Code
    283  _fp_init                   0x0000c690   Gb    1  Code  0x14
    284  __fplib_config_pureend_doubles
                                    0x0000c6a0   Gb    1  Code
    285  _fp_display_gate           0x0000c6a4   Gb    1  Code  0x4
    286  OSMapTbl                   0x0000c6a8   Gb    1  Data  0x8
    287  OSUnMapTbl                 0x0000c6b0   Gb    1  Data  0x100
    288  __stdout                   0x0000c8e0   Gb    2  Data  0x4
    289  TaskStk                    0x0000c8e4   Gb    2  Data  0x3000
    290  OSCtxSwCtr                 0x0000f8e4   Gb    2  Data  0x4
    291  OSEventFreeList            0x0000f8e8   Gb    2  Data  0x4
    292  OSEventTbl                 0x0000f8ec   Gb    2  Data  0x78
    293  OSFlagTbl                  0x0000f964   Gb    2  Data  0x3c
    294  OSFlagFreeList             0x0000f9a0   Gb    2  Data  0x4
    295  OSIntNesting               0x0000f9a4   Gb    2  Data  0x1
    296  OSIntExitY                 0x0000f9a5   Gb    2  Data  0x1
    297  OSLockNesting              0x0000f9a6   Gb    2  Data  0x1
    298  OSPrioCur                  0x0000f9a7   Gb    2  Data  0x1
    299  OSPrioHighRdy              0x0000f9a8   Gb    2  Data  0x1
    300  OSRdyGrp                   0x0000f9a9   Gb    2  Data  0x1
    301  OSRdyTbl                   0x0000f9aa   Gb    2  Data  0x2
    302  OSRunning                  0x0000f9ac   Gb    2  Data  0x1
    303  OSTaskCtr                  0x0000f9ad   Gb    2  Data  0x1
    304  OSIdleCtr                  0x0000f9b0   Gb    2  Data  0x4
    305  OSTaskIdleStk              0x0000f9b4   Gb    2  Data  0x800
    306  OSTCBCur                   0x000101b4   Gb    2  Data  0x4
    307  OSTCBFreeList              0x000101b8   Gb    2  Data  0x4
    308  OSTCBHighRdy               0x000101bc   Gb    2  Data  0x4
    309  OSTCBList                  0x000101c0   Gb    2  Data  0x4
    310  OSTCBPrioTbl               0x000101c4   Gb    2  Data  0x34
    311  OSTCBTbl                   0x000101f8   Gb    2  Data  0x270
    312  OSMemFreeList              0x00010468   Gb    2  Data  0x4
    313  OSMemTbl                   0x0001046c   Gb    2  Data  0x64
    314  OSQFreeList                0x000104d0   Gb    2  Data  0x4
    315  OSQTbl                     0x000104d4   Gb    2  Data  0x78
    316  OSTime                     0x0001054c   Gb    2  Data  0x4
    317  OSIntCtxSwFlag             0x00010554   Gb    2  Data  0x4
    318  Image$$ZI$$Limit           0x000105b8   Gb  Abs   -- 
    319  __SIG_IGN                  0xfffffffd   Gb  Abs   -- 
    320  __SIG_ERR                  0xfffffffe   Gb  Abs   -- 
    321  __SIG_DFL                  0xffffffff   Gb  Abs   -- 


** Section #11 '.strtab' (SHT_STRTAB)
    Size   : 2684 bytes


** Section #12 '.note' (SHT_NOTE)
    Size   : 24 bytes (alignment 4)


** Section #13 '.comment' (SHT_PROGBITS)
    Size   : 2180 bytes


** Section #14 '.shstrtab' (SHT_STRTAB)
    Size   : 164 bytes


